
rtarget:     file format elf64-x86-64


Disassembly of section .init:

0000000000400c60 <_init>:
  400c60:	48 83 ec 08          	sub    $0x8,%rsp
  400c64:	48 8b 05 8d 43 20 00 	mov    0x20438d(%rip),%rax        # 604ff8 <_DYNAMIC+0x1d0>
  400c6b:	48 85 c0             	test   %rax,%rax
  400c6e:	74 05                	je     400c75 <_init+0x15>
  400c70:	e8 2b 01 00 00       	callq  400da0 <__gmon_start__@plt>
  400c75:	48 83 c4 08          	add    $0x8,%rsp
  400c79:	c3                   	retq   

Disassembly of section .plt:

0000000000400c80 <strcasecmp@plt-0x10>:
  400c80:	ff 35 82 43 20 00    	pushq  0x204382(%rip)        # 605008 <_GLOBAL_OFFSET_TABLE_+0x8>
  400c86:	ff 25 84 43 20 00    	jmpq   *0x204384(%rip)        # 605010 <_GLOBAL_OFFSET_TABLE_+0x10>
  400c8c:	0f 1f 40 00          	nopl   0x0(%rax)

0000000000400c90 <strcasecmp@plt>:
  400c90:	ff 25 82 43 20 00    	jmpq   *0x204382(%rip)        # 605018 <_GLOBAL_OFFSET_TABLE_+0x18>
  400c96:	68 00 00 00 00       	pushq  $0x0
  400c9b:	e9 e0 ff ff ff       	jmpq   400c80 <_init+0x20>

0000000000400ca0 <__errno_location@plt>:
  400ca0:	ff 25 7a 43 20 00    	jmpq   *0x20437a(%rip)        # 605020 <_GLOBAL_OFFSET_TABLE_+0x20>
  400ca6:	68 01 00 00 00       	pushq  $0x1
  400cab:	e9 d0 ff ff ff       	jmpq   400c80 <_init+0x20>

0000000000400cb0 <srandom@plt>:
  400cb0:	ff 25 72 43 20 00    	jmpq   *0x204372(%rip)        # 605028 <_GLOBAL_OFFSET_TABLE_+0x28>
  400cb6:	68 02 00 00 00       	pushq  $0x2
  400cbb:	e9 c0 ff ff ff       	jmpq   400c80 <_init+0x20>

0000000000400cc0 <strncmp@plt>:
  400cc0:	ff 25 6a 43 20 00    	jmpq   *0x20436a(%rip)        # 605030 <_GLOBAL_OFFSET_TABLE_+0x30>
  400cc6:	68 03 00 00 00       	pushq  $0x3
  400ccb:	e9 b0 ff ff ff       	jmpq   400c80 <_init+0x20>

0000000000400cd0 <strcpy@plt>:
  400cd0:	ff 25 62 43 20 00    	jmpq   *0x204362(%rip)        # 605038 <_GLOBAL_OFFSET_TABLE_+0x38>
  400cd6:	68 04 00 00 00       	pushq  $0x4
  400cdb:	e9 a0 ff ff ff       	jmpq   400c80 <_init+0x20>

0000000000400ce0 <puts@plt>:
  400ce0:	ff 25 5a 43 20 00    	jmpq   *0x20435a(%rip)        # 605040 <_GLOBAL_OFFSET_TABLE_+0x40>
  400ce6:	68 05 00 00 00       	pushq  $0x5
  400ceb:	e9 90 ff ff ff       	jmpq   400c80 <_init+0x20>

0000000000400cf0 <write@plt>:
  400cf0:	ff 25 52 43 20 00    	jmpq   *0x204352(%rip)        # 605048 <_GLOBAL_OFFSET_TABLE_+0x48>
  400cf6:	68 06 00 00 00       	pushq  $0x6
  400cfb:	e9 80 ff ff ff       	jmpq   400c80 <_init+0x20>

0000000000400d00 <__stack_chk_fail@plt>:
  400d00:	ff 25 4a 43 20 00    	jmpq   *0x20434a(%rip)        # 605050 <_GLOBAL_OFFSET_TABLE_+0x50>
  400d06:	68 07 00 00 00       	pushq  $0x7
  400d0b:	e9 70 ff ff ff       	jmpq   400c80 <_init+0x20>

0000000000400d10 <mmap@plt>:
  400d10:	ff 25 42 43 20 00    	jmpq   *0x204342(%rip)        # 605058 <_GLOBAL_OFFSET_TABLE_+0x58>
  400d16:	68 08 00 00 00       	pushq  $0x8
  400d1b:	e9 60 ff ff ff       	jmpq   400c80 <_init+0x20>

0000000000400d20 <memset@plt>:
  400d20:	ff 25 3a 43 20 00    	jmpq   *0x20433a(%rip)        # 605060 <_GLOBAL_OFFSET_TABLE_+0x60>
  400d26:	68 09 00 00 00       	pushq  $0x9
  400d2b:	e9 50 ff ff ff       	jmpq   400c80 <_init+0x20>

0000000000400d30 <alarm@plt>:
  400d30:	ff 25 32 43 20 00    	jmpq   *0x204332(%rip)        # 605068 <_GLOBAL_OFFSET_TABLE_+0x68>
  400d36:	68 0a 00 00 00       	pushq  $0xa
  400d3b:	e9 40 ff ff ff       	jmpq   400c80 <_init+0x20>

0000000000400d40 <close@plt>:
  400d40:	ff 25 2a 43 20 00    	jmpq   *0x20432a(%rip)        # 605070 <_GLOBAL_OFFSET_TABLE_+0x70>
  400d46:	68 0b 00 00 00       	pushq  $0xb
  400d4b:	e9 30 ff ff ff       	jmpq   400c80 <_init+0x20>

0000000000400d50 <read@plt>:
  400d50:	ff 25 22 43 20 00    	jmpq   *0x204322(%rip)        # 605078 <_GLOBAL_OFFSET_TABLE_+0x78>
  400d56:	68 0c 00 00 00       	pushq  $0xc
  400d5b:	e9 20 ff ff ff       	jmpq   400c80 <_init+0x20>

0000000000400d60 <__libc_start_main@plt>:
  400d60:	ff 25 1a 43 20 00    	jmpq   *0x20431a(%rip)        # 605080 <_GLOBAL_OFFSET_TABLE_+0x80>
  400d66:	68 0d 00 00 00       	pushq  $0xd
  400d6b:	e9 10 ff ff ff       	jmpq   400c80 <_init+0x20>

0000000000400d70 <signal@plt>:
  400d70:	ff 25 12 43 20 00    	jmpq   *0x204312(%rip)        # 605088 <_GLOBAL_OFFSET_TABLE_+0x88>
  400d76:	68 0e 00 00 00       	pushq  $0xe
  400d7b:	e9 00 ff ff ff       	jmpq   400c80 <_init+0x20>

0000000000400d80 <gethostbyname@plt>:
  400d80:	ff 25 0a 43 20 00    	jmpq   *0x20430a(%rip)        # 605090 <_GLOBAL_OFFSET_TABLE_+0x90>
  400d86:	68 0f 00 00 00       	pushq  $0xf
  400d8b:	e9 f0 fe ff ff       	jmpq   400c80 <_init+0x20>

0000000000400d90 <__memmove_chk@plt>:
  400d90:	ff 25 02 43 20 00    	jmpq   *0x204302(%rip)        # 605098 <_GLOBAL_OFFSET_TABLE_+0x98>
  400d96:	68 10 00 00 00       	pushq  $0x10
  400d9b:	e9 e0 fe ff ff       	jmpq   400c80 <_init+0x20>

0000000000400da0 <__gmon_start__@plt>:
  400da0:	ff 25 fa 42 20 00    	jmpq   *0x2042fa(%rip)        # 6050a0 <_GLOBAL_OFFSET_TABLE_+0xa0>
  400da6:	68 11 00 00 00       	pushq  $0x11
  400dab:	e9 d0 fe ff ff       	jmpq   400c80 <_init+0x20>

0000000000400db0 <strtol@plt>:
  400db0:	ff 25 f2 42 20 00    	jmpq   *0x2042f2(%rip)        # 6050a8 <_GLOBAL_OFFSET_TABLE_+0xa8>
  400db6:	68 12 00 00 00       	pushq  $0x12
  400dbb:	e9 c0 fe ff ff       	jmpq   400c80 <_init+0x20>

0000000000400dc0 <memcpy@plt>:
  400dc0:	ff 25 ea 42 20 00    	jmpq   *0x2042ea(%rip)        # 6050b0 <_GLOBAL_OFFSET_TABLE_+0xb0>
  400dc6:	68 13 00 00 00       	pushq  $0x13
  400dcb:	e9 b0 fe ff ff       	jmpq   400c80 <_init+0x20>

0000000000400dd0 <time@plt>:
  400dd0:	ff 25 e2 42 20 00    	jmpq   *0x2042e2(%rip)        # 6050b8 <_GLOBAL_OFFSET_TABLE_+0xb8>
  400dd6:	68 14 00 00 00       	pushq  $0x14
  400ddb:	e9 a0 fe ff ff       	jmpq   400c80 <_init+0x20>

0000000000400de0 <random@plt>:
  400de0:	ff 25 da 42 20 00    	jmpq   *0x2042da(%rip)        # 6050c0 <_GLOBAL_OFFSET_TABLE_+0xc0>
  400de6:	68 15 00 00 00       	pushq  $0x15
  400deb:	e9 90 fe ff ff       	jmpq   400c80 <_init+0x20>

0000000000400df0 <_IO_getc@plt>:
  400df0:	ff 25 d2 42 20 00    	jmpq   *0x2042d2(%rip)        # 6050c8 <_GLOBAL_OFFSET_TABLE_+0xc8>
  400df6:	68 16 00 00 00       	pushq  $0x16
  400dfb:	e9 80 fe ff ff       	jmpq   400c80 <_init+0x20>

0000000000400e00 <__isoc99_sscanf@plt>:
  400e00:	ff 25 ca 42 20 00    	jmpq   *0x2042ca(%rip)        # 6050d0 <_GLOBAL_OFFSET_TABLE_+0xd0>
  400e06:	68 17 00 00 00       	pushq  $0x17
  400e0b:	e9 70 fe ff ff       	jmpq   400c80 <_init+0x20>

0000000000400e10 <munmap@plt>:
  400e10:	ff 25 c2 42 20 00    	jmpq   *0x2042c2(%rip)        # 6050d8 <_GLOBAL_OFFSET_TABLE_+0xd8>
  400e16:	68 18 00 00 00       	pushq  $0x18
  400e1b:	e9 60 fe ff ff       	jmpq   400c80 <_init+0x20>

0000000000400e20 <__printf_chk@plt>:
  400e20:	ff 25 ba 42 20 00    	jmpq   *0x2042ba(%rip)        # 6050e0 <_GLOBAL_OFFSET_TABLE_+0xe0>
  400e26:	68 19 00 00 00       	pushq  $0x19
  400e2b:	e9 50 fe ff ff       	jmpq   400c80 <_init+0x20>

0000000000400e30 <fopen@plt>:
  400e30:	ff 25 b2 42 20 00    	jmpq   *0x2042b2(%rip)        # 6050e8 <_GLOBAL_OFFSET_TABLE_+0xe8>
  400e36:	68 1a 00 00 00       	pushq  $0x1a
  400e3b:	e9 40 fe ff ff       	jmpq   400c80 <_init+0x20>

0000000000400e40 <getopt@plt>:
  400e40:	ff 25 aa 42 20 00    	jmpq   *0x2042aa(%rip)        # 6050f0 <_GLOBAL_OFFSET_TABLE_+0xf0>
  400e46:	68 1b 00 00 00       	pushq  $0x1b
  400e4b:	e9 30 fe ff ff       	jmpq   400c80 <_init+0x20>

0000000000400e50 <strtoul@plt>:
  400e50:	ff 25 a2 42 20 00    	jmpq   *0x2042a2(%rip)        # 6050f8 <_GLOBAL_OFFSET_TABLE_+0xf8>
  400e56:	68 1c 00 00 00       	pushq  $0x1c
  400e5b:	e9 20 fe ff ff       	jmpq   400c80 <_init+0x20>

0000000000400e60 <gethostname@plt>:
  400e60:	ff 25 9a 42 20 00    	jmpq   *0x20429a(%rip)        # 605100 <_GLOBAL_OFFSET_TABLE_+0x100>
  400e66:	68 1d 00 00 00       	pushq  $0x1d
  400e6b:	e9 10 fe ff ff       	jmpq   400c80 <_init+0x20>

0000000000400e70 <exit@plt>:
  400e70:	ff 25 92 42 20 00    	jmpq   *0x204292(%rip)        # 605108 <_GLOBAL_OFFSET_TABLE_+0x108>
  400e76:	68 1e 00 00 00       	pushq  $0x1e
  400e7b:	e9 00 fe ff ff       	jmpq   400c80 <_init+0x20>

0000000000400e80 <connect@plt>:
  400e80:	ff 25 8a 42 20 00    	jmpq   *0x20428a(%rip)        # 605110 <_GLOBAL_OFFSET_TABLE_+0x110>
  400e86:	68 1f 00 00 00       	pushq  $0x1f
  400e8b:	e9 f0 fd ff ff       	jmpq   400c80 <_init+0x20>

0000000000400e90 <__fprintf_chk@plt>:
  400e90:	ff 25 82 42 20 00    	jmpq   *0x204282(%rip)        # 605118 <_GLOBAL_OFFSET_TABLE_+0x118>
  400e96:	68 20 00 00 00       	pushq  $0x20
  400e9b:	e9 e0 fd ff ff       	jmpq   400c80 <_init+0x20>

0000000000400ea0 <__sprintf_chk@plt>:
  400ea0:	ff 25 7a 42 20 00    	jmpq   *0x20427a(%rip)        # 605120 <_GLOBAL_OFFSET_TABLE_+0x120>
  400ea6:	68 21 00 00 00       	pushq  $0x21
  400eab:	e9 d0 fd ff ff       	jmpq   400c80 <_init+0x20>

0000000000400eb0 <socket@plt>:
  400eb0:	ff 25 72 42 20 00    	jmpq   *0x204272(%rip)        # 605128 <_GLOBAL_OFFSET_TABLE_+0x128>
  400eb6:	68 22 00 00 00       	pushq  $0x22
  400ebb:	e9 c0 fd ff ff       	jmpq   400c80 <_init+0x20>

Disassembly of section .text:

0000000000400ec0 <_start>:
  400ec0:	31 ed                	xor    %ebp,%ebp
  400ec2:	49 89 d1             	mov    %rdx,%r9
  400ec5:	5e                   	pop    %rsi
  400ec6:	48 89 e2             	mov    %rsp,%rdx
  400ec9:	48 83 e4 f0          	and    $0xfffffffffffffff0,%rsp
  400ecd:	50                   	push   %rax
  400ece:	54                   	push   %rsp
  400ecf:	49 c7 c0 f0 2f 40 00 	mov    $0x402ff0,%r8
  400ed6:	48 c7 c1 80 2f 40 00 	mov    $0x402f80,%rcx
  400edd:	48 c7 c7 c5 11 40 00 	mov    $0x4011c5,%rdi
  400ee4:	e8 77 fe ff ff       	callq  400d60 <__libc_start_main@plt>
  400ee9:	f4                   	hlt    
  400eea:	66 0f 1f 44 00 00    	nopw   0x0(%rax,%rax,1)

0000000000400ef0 <deregister_tm_clones>:
  400ef0:	b8 b7 54 60 00       	mov    $0x6054b7,%eax
  400ef5:	55                   	push   %rbp
  400ef6:	48 2d b0 54 60 00    	sub    $0x6054b0,%rax
  400efc:	48 83 f8 0e          	cmp    $0xe,%rax
  400f00:	48 89 e5             	mov    %rsp,%rbp
  400f03:	76 1b                	jbe    400f20 <deregister_tm_clones+0x30>
  400f05:	b8 00 00 00 00       	mov    $0x0,%eax
  400f0a:	48 85 c0             	test   %rax,%rax
  400f0d:	74 11                	je     400f20 <deregister_tm_clones+0x30>
  400f0f:	5d                   	pop    %rbp
  400f10:	bf b0 54 60 00       	mov    $0x6054b0,%edi
  400f15:	ff e0                	jmpq   *%rax
  400f17:	66 0f 1f 84 00 00 00 	nopw   0x0(%rax,%rax,1)
  400f1e:	00 00 
  400f20:	5d                   	pop    %rbp
  400f21:	c3                   	retq   
  400f22:	66 66 66 66 66 2e 0f 	data16 data16 data16 data16 nopw %cs:0x0(%rax,%rax,1)
  400f29:	1f 84 00 00 00 00 00 

0000000000400f30 <register_tm_clones>:
  400f30:	be b0 54 60 00       	mov    $0x6054b0,%esi
  400f35:	55                   	push   %rbp
  400f36:	48 81 ee b0 54 60 00 	sub    $0x6054b0,%rsi
  400f3d:	48 c1 fe 03          	sar    $0x3,%rsi
  400f41:	48 89 e5             	mov    %rsp,%rbp
  400f44:	48 89 f0             	mov    %rsi,%rax
  400f47:	48 c1 e8 3f          	shr    $0x3f,%rax
  400f4b:	48 01 c6             	add    %rax,%rsi
  400f4e:	48 d1 fe             	sar    %rsi
  400f51:	74 15                	je     400f68 <register_tm_clones+0x38>
  400f53:	b8 00 00 00 00       	mov    $0x0,%eax
  400f58:	48 85 c0             	test   %rax,%rax
  400f5b:	74 0b                	je     400f68 <register_tm_clones+0x38>
  400f5d:	5d                   	pop    %rbp
  400f5e:	bf b0 54 60 00       	mov    $0x6054b0,%edi
  400f63:	ff e0                	jmpq   *%rax
  400f65:	0f 1f 00             	nopl   (%rax)
  400f68:	5d                   	pop    %rbp
  400f69:	c3                   	retq   
  400f6a:	66 0f 1f 44 00 00    	nopw   0x0(%rax,%rax,1)

0000000000400f70 <__do_global_dtors_aux>:
  400f70:	80 3d 79 45 20 00 00 	cmpb   $0x0,0x204579(%rip)        # 6054f0 <completed.7545>
  400f77:	75 11                	jne    400f8a <__do_global_dtors_aux+0x1a>
  400f79:	55                   	push   %rbp
  400f7a:	48 89 e5             	mov    %rsp,%rbp
  400f7d:	e8 6e ff ff ff       	callq  400ef0 <deregister_tm_clones>
  400f82:	5d                   	pop    %rbp
  400f83:	c6 05 66 45 20 00 01 	movb   $0x1,0x204566(%rip)        # 6054f0 <completed.7545>
  400f8a:	f3 c3                	repz retq 
  400f8c:	0f 1f 40 00          	nopl   0x0(%rax)

0000000000400f90 <frame_dummy>:
  400f90:	bf 20 4e 60 00       	mov    $0x604e20,%edi
  400f95:	48 83 3f 00          	cmpq   $0x0,(%rdi)
  400f99:	75 05                	jne    400fa0 <frame_dummy+0x10>
  400f9b:	eb 93                	jmp    400f30 <register_tm_clones>
  400f9d:	0f 1f 00             	nopl   (%rax)
  400fa0:	b8 00 00 00 00       	mov    $0x0,%eax
  400fa5:	48 85 c0             	test   %rax,%rax
  400fa8:	74 f1                	je     400f9b <frame_dummy+0xb>
  400faa:	55                   	push   %rbp
  400fab:	48 89 e5             	mov    %rsp,%rbp
  400fae:	ff d0                	callq  *%rax
  400fb0:	5d                   	pop    %rbp
  400fb1:	e9 7a ff ff ff       	jmpq   400f30 <register_tm_clones>

0000000000400fb6 <usage>:
  400fb6:	48 83 ec 08          	sub    $0x8,%rsp
  400fba:	48 89 fa             	mov    %rdi,%rdx
  400fbd:	83 3d 64 45 20 00 00 	cmpl   $0x0,0x204564(%rip)        # 605528 <is_checker>
  400fc4:	74 3e                	je     401004 <usage+0x4e>
  400fc6:	be 08 30 40 00       	mov    $0x403008,%esi
  400fcb:	bf 01 00 00 00       	mov    $0x1,%edi
  400fd0:	b8 00 00 00 00       	mov    $0x0,%eax
  400fd5:	e8 46 fe ff ff       	callq  400e20 <__printf_chk@plt>
  400fda:	bf 40 30 40 00       	mov    $0x403040,%edi
  400fdf:	e8 fc fc ff ff       	callq  400ce0 <puts@plt>
  400fe4:	bf b8 31 40 00       	mov    $0x4031b8,%edi
  400fe9:	e8 f2 fc ff ff       	callq  400ce0 <puts@plt>
  400fee:	bf 68 30 40 00       	mov    $0x403068,%edi
  400ff3:	e8 e8 fc ff ff       	callq  400ce0 <puts@plt>
  400ff8:	bf d2 31 40 00       	mov    $0x4031d2,%edi
  400ffd:	e8 de fc ff ff       	callq  400ce0 <puts@plt>
  401002:	eb 32                	jmp    401036 <usage+0x80>
  401004:	be ee 31 40 00       	mov    $0x4031ee,%esi
  401009:	bf 01 00 00 00       	mov    $0x1,%edi
  40100e:	b8 00 00 00 00       	mov    $0x0,%eax
  401013:	e8 08 fe ff ff       	callq  400e20 <__printf_chk@plt>
  401018:	bf 90 30 40 00       	mov    $0x403090,%edi
  40101d:	e8 be fc ff ff       	callq  400ce0 <puts@plt>
  401022:	bf b8 30 40 00       	mov    $0x4030b8,%edi
  401027:	e8 b4 fc ff ff       	callq  400ce0 <puts@plt>
  40102c:	bf 0c 32 40 00       	mov    $0x40320c,%edi
  401031:	e8 aa fc ff ff       	callq  400ce0 <puts@plt>
  401036:	bf 00 00 00 00       	mov    $0x0,%edi
  40103b:	e8 30 fe ff ff       	callq  400e70 <exit@plt>

0000000000401040 <initialize_target>:
  401040:	55                   	push   %rbp
  401041:	53                   	push   %rbx
  401042:	48 81 ec 18 21 00 00 	sub    $0x2118,%rsp
  401049:	89 f5                	mov    %esi,%ebp
  40104b:	64 48 8b 04 25 28 00 	mov    %fs:0x28,%rax
  401052:	00 00 
  401054:	48 89 84 24 08 21 00 	mov    %rax,0x2108(%rsp)
  40105b:	00 
  40105c:	31 c0                	xor    %eax,%eax
  40105e:	89 3d b4 44 20 00    	mov    %edi,0x2044b4(%rip)        # 605518 <check_level>
  401064:	8b 3d fe 40 20 00    	mov    0x2040fe(%rip),%edi        # 605168 <target_id>
  40106a:	e8 ee 1e 00 00       	callq  402f5d <gencookie>
  40106f:	89 05 af 44 20 00    	mov    %eax,0x2044af(%rip)        # 605524 <cookie>
  401075:	89 c7                	mov    %eax,%edi
  401077:	e8 e1 1e 00 00       	callq  402f5d <gencookie>
  40107c:	89 05 9e 44 20 00    	mov    %eax,0x20449e(%rip)        # 605520 <authkey>
  401082:	8b 05 e0 40 20 00    	mov    0x2040e0(%rip),%eax        # 605168 <target_id>
  401088:	8d 78 01             	lea    0x1(%rax),%edi
  40108b:	e8 20 fc ff ff       	callq  400cb0 <srandom@plt>
  401090:	e8 4b fd ff ff       	callq  400de0 <random@plt>
  401095:	89 c7                	mov    %eax,%edi
  401097:	e8 03 03 00 00       	callq  40139f <scramble>
  40109c:	89 c3                	mov    %eax,%ebx
  40109e:	85 ed                	test   %ebp,%ebp
  4010a0:	74 18                	je     4010ba <initialize_target+0x7a>
  4010a2:	bf 00 00 00 00       	mov    $0x0,%edi
  4010a7:	e8 24 fd ff ff       	callq  400dd0 <time@plt>
  4010ac:	89 c7                	mov    %eax,%edi
  4010ae:	e8 fd fb ff ff       	callq  400cb0 <srandom@plt>
  4010b3:	e8 28 fd ff ff       	callq  400de0 <random@plt>
  4010b8:	eb 05                	jmp    4010bf <initialize_target+0x7f>
  4010ba:	b8 00 00 00 00       	mov    $0x0,%eax
  4010bf:	01 c3                	add    %eax,%ebx
  4010c1:	0f b7 db             	movzwl %bx,%ebx
  4010c4:	8d 04 dd 00 01 00 00 	lea    0x100(,%rbx,8),%eax
  4010cb:	89 c0                	mov    %eax,%eax
  4010cd:	48 89 05 cc 43 20 00 	mov    %rax,0x2043cc(%rip)        # 6054a0 <buf_offset>
  4010d4:	c6 05 6d 50 20 00 72 	movb   $0x72,0x20506d(%rip)        # 606148 <target_prefix>
  4010db:	83 3d c6 43 20 00 00 	cmpl   $0x0,0x2043c6(%rip)        # 6054a8 <notify>
  4010e2:	0f 84 bb 00 00 00    	je     4011a3 <initialize_target+0x163>
  4010e8:	83 3d 39 44 20 00 00 	cmpl   $0x0,0x204439(%rip)        # 605528 <is_checker>
  4010ef:	0f 85 ae 00 00 00    	jne    4011a3 <initialize_target+0x163>
  4010f5:	be 00 01 00 00       	mov    $0x100,%esi
  4010fa:	48 89 e7             	mov    %rsp,%rdi
  4010fd:	e8 5e fd ff ff       	callq  400e60 <gethostname@plt>
  401102:	85 c0                	test   %eax,%eax
  401104:	74 25                	je     40112b <initialize_target+0xeb>
  401106:	bf e8 30 40 00       	mov    $0x4030e8,%edi
  40110b:	e8 d0 fb ff ff       	callq  400ce0 <puts@plt>
  401110:	bf 08 00 00 00       	mov    $0x8,%edi
  401115:	e8 56 fd ff ff       	callq  400e70 <exit@plt>
  40111a:	48 89 e6             	mov    %rsp,%rsi
  40111d:	e8 6e fb ff ff       	callq  400c90 <strcasecmp@plt>
  401122:	85 c0                	test   %eax,%eax
  401124:	74 21                	je     401147 <initialize_target+0x107>
  401126:	83 c3 01             	add    $0x1,%ebx
  401129:	eb 05                	jmp    401130 <initialize_target+0xf0>
  40112b:	bb 00 00 00 00       	mov    $0x0,%ebx
  401130:	48 63 c3             	movslq %ebx,%rax
  401133:	48 8b 3c c5 80 51 60 	mov    0x605180(,%rax,8),%rdi
  40113a:	00 
  40113b:	48 85 ff             	test   %rdi,%rdi
  40113e:	75 da                	jne    40111a <initialize_target+0xda>
  401140:	b8 00 00 00 00       	mov    $0x0,%eax
  401145:	eb 05                	jmp    40114c <initialize_target+0x10c>
  401147:	b8 01 00 00 00       	mov    $0x1,%eax
  40114c:	85 c0                	test   %eax,%eax
  40114e:	75 1c                	jne    40116c <initialize_target+0x12c>
  401150:	48 89 e2             	mov    %rsp,%rdx
  401153:	be 20 31 40 00       	mov    $0x403120,%esi
  401158:	bf 01 00 00 00       	mov    $0x1,%edi
  40115d:	e8 be fc ff ff       	callq  400e20 <__printf_chk@plt>
  401162:	bf 08 00 00 00       	mov    $0x8,%edi
  401167:	e8 04 fd ff ff       	callq  400e70 <exit@plt>
  40116c:	48 8d bc 24 00 01 00 	lea    0x100(%rsp),%rdi
  401173:	00 
  401174:	e8 4e 1b 00 00       	callq  402cc7 <init_driver>
  401179:	85 c0                	test   %eax,%eax
  40117b:	79 26                	jns    4011a3 <initialize_target+0x163>
  40117d:	48 8d 94 24 00 01 00 	lea    0x100(%rsp),%rdx
  401184:	00 
  401185:	be 60 31 40 00       	mov    $0x403160,%esi
  40118a:	bf 01 00 00 00       	mov    $0x1,%edi
  40118f:	b8 00 00 00 00       	mov    $0x0,%eax
  401194:	e8 87 fc ff ff       	callq  400e20 <__printf_chk@plt>
  401199:	bf 08 00 00 00       	mov    $0x8,%edi
  40119e:	e8 cd fc ff ff       	callq  400e70 <exit@plt>
  4011a3:	48 8b 84 24 08 21 00 	mov    0x2108(%rsp),%rax
  4011aa:	00 
  4011ab:	64 48 33 04 25 28 00 	xor    %fs:0x28,%rax
  4011b2:	00 00 
  4011b4:	74 05                	je     4011bb <initialize_target+0x17b>
  4011b6:	e8 45 fb ff ff       	callq  400d00 <__stack_chk_fail@plt>
  4011bb:	48 81 c4 18 21 00 00 	add    $0x2118,%rsp
  4011c2:	5b                   	pop    %rbx
  4011c3:	5d                   	pop    %rbp
  4011c4:	c3                   	retq   

00000000004011c5 <main>:
  4011c5:	41 56                	push   %r14
  4011c7:	41 55                	push   %r13
  4011c9:	41 54                	push   %r12
  4011cb:	55                   	push   %rbp
  4011cc:	53                   	push   %rbx
  4011cd:	41 89 fc             	mov    %edi,%r12d
  4011d0:	48 89 f3             	mov    %rsi,%rbx
  4011d3:	be 36 20 40 00       	mov    $0x402036,%esi
  4011d8:	bf 0b 00 00 00       	mov    $0xb,%edi
  4011dd:	e8 8e fb ff ff       	callq  400d70 <signal@plt>
  4011e2:	be e8 1f 40 00       	mov    $0x401fe8,%esi
  4011e7:	bf 07 00 00 00       	mov    $0x7,%edi
  4011ec:	e8 7f fb ff ff       	callq  400d70 <signal@plt>
  4011f1:	be 84 20 40 00       	mov    $0x402084,%esi
  4011f6:	bf 04 00 00 00       	mov    $0x4,%edi
  4011fb:	e8 70 fb ff ff       	callq  400d70 <signal@plt>
  401200:	83 3d 21 43 20 00 00 	cmpl   $0x0,0x204321(%rip)        # 605528 <is_checker>
  401207:	74 20                	je     401229 <main+0x64>
  401209:	be d2 20 40 00       	mov    $0x4020d2,%esi
  40120e:	bf 0e 00 00 00       	mov    $0xe,%edi
  401213:	e8 58 fb ff ff       	callq  400d70 <signal@plt>
  401218:	bf 05 00 00 00       	mov    $0x5,%edi
  40121d:	e8 0e fb ff ff       	callq  400d30 <alarm@plt>
  401222:	bd 2a 32 40 00       	mov    $0x40322a,%ebp
  401227:	eb 05                	jmp    40122e <main+0x69>
  401229:	bd 25 32 40 00       	mov    $0x403225,%ebp
  40122e:	48 8b 05 8b 42 20 00 	mov    0x20428b(%rip),%rax        # 6054c0 <stdin@@GLIBC_2.2.5>
  401235:	48 89 05 d4 42 20 00 	mov    %rax,0x2042d4(%rip)        # 605510 <infile>
  40123c:	41 bd 00 00 00 00    	mov    $0x0,%r13d
  401242:	41 be 00 00 00 00    	mov    $0x0,%r14d
  401248:	e9 c6 00 00 00       	jmpq   401313 <main+0x14e>
  40124d:	83 e8 61             	sub    $0x61,%eax
  401250:	3c 10                	cmp    $0x10,%al
  401252:	0f 87 9c 00 00 00    	ja     4012f4 <main+0x12f>
  401258:	0f b6 c0             	movzbl %al,%eax
  40125b:	ff 24 c5 70 32 40 00 	jmpq   *0x403270(,%rax,8)
  401262:	48 8b 3b             	mov    (%rbx),%rdi
  401265:	e8 4c fd ff ff       	callq  400fb6 <usage>
  40126a:	be dd 34 40 00       	mov    $0x4034dd,%esi
  40126f:	48 8b 3d 6a 42 20 00 	mov    0x20426a(%rip),%rdi        # 6054e0 <optarg@@GLIBC_2.2.5>
  401276:	e8 b5 fb ff ff       	callq  400e30 <fopen@plt>
  40127b:	48 89 05 8e 42 20 00 	mov    %rax,0x20428e(%rip)        # 605510 <infile>
  401282:	48 85 c0             	test   %rax,%rax
  401285:	0f 85 88 00 00 00    	jne    401313 <main+0x14e>
  40128b:	48 8b 0d 4e 42 20 00 	mov    0x20424e(%rip),%rcx        # 6054e0 <optarg@@GLIBC_2.2.5>
  401292:	ba 32 32 40 00       	mov    $0x403232,%edx
  401297:	be 01 00 00 00       	mov    $0x1,%esi
  40129c:	48 8b 3d 45 42 20 00 	mov    0x204245(%rip),%rdi        # 6054e8 <stderr@@GLIBC_2.2.5>
  4012a3:	e8 e8 fb ff ff       	callq  400e90 <__fprintf_chk@plt>
  4012a8:	b8 01 00 00 00       	mov    $0x1,%eax
  4012ad:	e9 e4 00 00 00       	jmpq   401396 <main+0x1d1>
  4012b2:	ba 10 00 00 00       	mov    $0x10,%edx
  4012b7:	be 00 00 00 00       	mov    $0x0,%esi
  4012bc:	48 8b 3d 1d 42 20 00 	mov    0x20421d(%rip),%rdi        # 6054e0 <optarg@@GLIBC_2.2.5>
  4012c3:	e8 88 fb ff ff       	callq  400e50 <strtoul@plt>
  4012c8:	41 89 c6             	mov    %eax,%r14d
  4012cb:	eb 46                	jmp    401313 <main+0x14e>
  4012cd:	ba 0a 00 00 00       	mov    $0xa,%edx
  4012d2:	be 00 00 00 00       	mov    $0x0,%esi
  4012d7:	48 8b 3d 02 42 20 00 	mov    0x204202(%rip),%rdi        # 6054e0 <optarg@@GLIBC_2.2.5>
  4012de:	e8 cd fa ff ff       	callq  400db0 <strtol@plt>
  4012e3:	41 89 c5             	mov    %eax,%r13d
  4012e6:	eb 2b                	jmp    401313 <main+0x14e>
  4012e8:	c7 05 b6 41 20 00 00 	movl   $0x0,0x2041b6(%rip)        # 6054a8 <notify>
  4012ef:	00 00 00 
  4012f2:	eb 1f                	jmp    401313 <main+0x14e>
  4012f4:	0f be d2             	movsbl %dl,%edx
  4012f7:	be 4f 32 40 00       	mov    $0x40324f,%esi
  4012fc:	bf 01 00 00 00       	mov    $0x1,%edi
  401301:	b8 00 00 00 00       	mov    $0x0,%eax
  401306:	e8 15 fb ff ff       	callq  400e20 <__printf_chk@plt>
  40130b:	48 8b 3b             	mov    (%rbx),%rdi
  40130e:	e8 a3 fc ff ff       	callq  400fb6 <usage>
  401313:	48 89 ea             	mov    %rbp,%rdx
  401316:	48 89 de             	mov    %rbx,%rsi
  401319:	44 89 e7             	mov    %r12d,%edi
  40131c:	e8 1f fb ff ff       	callq  400e40 <getopt@plt>
  401321:	89 c2                	mov    %eax,%edx
  401323:	3c ff                	cmp    $0xff,%al
  401325:	0f 85 22 ff ff ff    	jne    40124d <main+0x88>
  40132b:	be 01 00 00 00       	mov    $0x1,%esi
  401330:	44 89 ef             	mov    %r13d,%edi
  401333:	e8 08 fd ff ff       	callq  401040 <initialize_target>
  401338:	83 3d e9 41 20 00 00 	cmpl   $0x0,0x2041e9(%rip)        # 605528 <is_checker>
  40133f:	74 2a                	je     40136b <main+0x1a6>
  401341:	44 3b 35 d8 41 20 00 	cmp    0x2041d8(%rip),%r14d        # 605520 <authkey>
  401348:	74 21                	je     40136b <main+0x1a6>
  40134a:	44 89 f2             	mov    %r14d,%edx
  40134d:	be 88 31 40 00       	mov    $0x403188,%esi
  401352:	bf 01 00 00 00       	mov    $0x1,%edi
  401357:	b8 00 00 00 00       	mov    $0x0,%eax
  40135c:	e8 bf fa ff ff       	callq  400e20 <__printf_chk@plt>
  401361:	b8 00 00 00 00       	mov    $0x0,%eax
  401366:	e8 19 09 00 00       	callq  401c84 <check_fail>
  40136b:	8b 15 b3 41 20 00    	mov    0x2041b3(%rip),%edx        # 605524 <cookie>
  401371:	be 62 32 40 00       	mov    $0x403262,%esi
  401376:	bf 01 00 00 00       	mov    $0x1,%edi
  40137b:	b8 00 00 00 00       	mov    $0x0,%eax
  401380:	e8 9b fa ff ff       	callq  400e20 <__printf_chk@plt>
  401385:	48 8b 3d 14 41 20 00 	mov    0x204114(%rip),%rdi        # 6054a0 <buf_offset>
  40138c:	e8 94 0d 00 00       	callq  402125 <launch>
  401391:	b8 00 00 00 00       	mov    $0x0,%eax
  401396:	5b                   	pop    %rbx
  401397:	5d                   	pop    %rbp
  401398:	41 5c                	pop    %r12
  40139a:	41 5d                	pop    %r13
  40139c:	41 5e                	pop    %r14
  40139e:	c3                   	retq   

000000000040139f <scramble>:
  40139f:	b8 00 00 00 00       	mov    $0x0,%eax
  4013a4:	eb 11                	jmp    4013b7 <scramble+0x18>
  4013a6:	69 d0 2a a7 00 00    	imul   $0xa72a,%eax,%edx
  4013ac:	01 fa                	add    %edi,%edx
  4013ae:	89 c1                	mov    %eax,%ecx
  4013b0:	89 54 8c c8          	mov    %edx,-0x38(%rsp,%rcx,4)
  4013b4:	83 c0 01             	add    $0x1,%eax
  4013b7:	83 f8 09             	cmp    $0x9,%eax
  4013ba:	76 ea                	jbe    4013a6 <scramble+0x7>
  4013bc:	8b 44 24 e8          	mov    -0x18(%rsp),%eax
  4013c0:	69 c0 09 69 00 00    	imul   $0x6909,%eax,%eax
  4013c6:	89 44 24 e8          	mov    %eax,-0x18(%rsp)
  4013ca:	8b 44 24 e8          	mov    -0x18(%rsp),%eax
  4013ce:	69 c0 19 11 00 00    	imul   $0x1119,%eax,%eax
  4013d4:	89 44 24 e8          	mov    %eax,-0x18(%rsp)
  4013d8:	8b 44 24 c8          	mov    -0x38(%rsp),%eax
  4013dc:	69 c0 61 82 00 00    	imul   $0x8261,%eax,%eax
  4013e2:	89 44 24 c8          	mov    %eax,-0x38(%rsp)
  4013e6:	8b 44 24 cc          	mov    -0x34(%rsp),%eax
  4013ea:	69 c0 28 27 00 00    	imul   $0x2728,%eax,%eax
  4013f0:	89 44 24 cc          	mov    %eax,-0x34(%rsp)
  4013f4:	8b 44 24 e0          	mov    -0x20(%rsp),%eax
  4013f8:	69 c0 0c 9d 00 00    	imul   $0x9d0c,%eax,%eax
  4013fe:	89 44 24 e0          	mov    %eax,-0x20(%rsp)
  401402:	8b 44 24 cc          	mov    -0x34(%rsp),%eax
  401406:	69 c0 c2 d9 00 00    	imul   $0xd9c2,%eax,%eax
  40140c:	89 44 24 cc          	mov    %eax,-0x34(%rsp)
  401410:	8b 44 24 e8          	mov    -0x18(%rsp),%eax
  401414:	69 c0 14 03 00 00    	imul   $0x314,%eax,%eax
  40141a:	89 44 24 e8          	mov    %eax,-0x18(%rsp)
  40141e:	8b 44 24 e0          	mov    -0x20(%rsp),%eax
  401422:	69 c0 db e2 00 00    	imul   $0xe2db,%eax,%eax
  401428:	89 44 24 e0          	mov    %eax,-0x20(%rsp)
  40142c:	8b 44 24 cc          	mov    -0x34(%rsp),%eax
  401430:	69 c0 11 60 00 00    	imul   $0x6011,%eax,%eax
  401436:	89 44 24 cc          	mov    %eax,-0x34(%rsp)
  40143a:	8b 44 24 cc          	mov    -0x34(%rsp),%eax
  40143e:	69 c0 c9 60 00 00    	imul   $0x60c9,%eax,%eax
  401444:	89 44 24 cc          	mov    %eax,-0x34(%rsp)
  401448:	8b 44 24 d4          	mov    -0x2c(%rsp),%eax
  40144c:	69 c0 09 92 00 00    	imul   $0x9209,%eax,%eax
  401452:	89 44 24 d4          	mov    %eax,-0x2c(%rsp)
  401456:	8b 44 24 d0          	mov    -0x30(%rsp),%eax
  40145a:	69 c0 0d 64 00 00    	imul   $0x640d,%eax,%eax
  401460:	89 44 24 d0          	mov    %eax,-0x30(%rsp)
  401464:	8b 44 24 c8          	mov    -0x38(%rsp),%eax
  401468:	69 c0 bf 56 00 00    	imul   $0x56bf,%eax,%eax
  40146e:	89 44 24 c8          	mov    %eax,-0x38(%rsp)
  401472:	8b 44 24 d8          	mov    -0x28(%rsp),%eax
  401476:	69 c0 89 42 00 00    	imul   $0x4289,%eax,%eax
  40147c:	89 44 24 d8          	mov    %eax,-0x28(%rsp)
  401480:	8b 44 24 ec          	mov    -0x14(%rsp),%eax
  401484:	69 c0 f1 d5 00 00    	imul   $0xd5f1,%eax,%eax
  40148a:	89 44 24 ec          	mov    %eax,-0x14(%rsp)
  40148e:	8b 44 24 ec          	mov    -0x14(%rsp),%eax
  401492:	69 c0 34 51 00 00    	imul   $0x5134,%eax,%eax
  401498:	89 44 24 ec          	mov    %eax,-0x14(%rsp)
  40149c:	8b 44 24 dc          	mov    -0x24(%rsp),%eax
  4014a0:	69 c0 fd 0e 00 00    	imul   $0xefd,%eax,%eax
  4014a6:	89 44 24 dc          	mov    %eax,-0x24(%rsp)
  4014aa:	8b 44 24 d8          	mov    -0x28(%rsp),%eax
  4014ae:	69 c0 73 b0 00 00    	imul   $0xb073,%eax,%eax
  4014b4:	89 44 24 d8          	mov    %eax,-0x28(%rsp)
  4014b8:	8b 44 24 e4          	mov    -0x1c(%rsp),%eax
  4014bc:	69 c0 fd f9 00 00    	imul   $0xf9fd,%eax,%eax
  4014c2:	89 44 24 e4          	mov    %eax,-0x1c(%rsp)
  4014c6:	8b 44 24 d0          	mov    -0x30(%rsp),%eax
  4014ca:	69 c0 72 33 00 00    	imul   $0x3372,%eax,%eax
  4014d0:	89 44 24 d0          	mov    %eax,-0x30(%rsp)
  4014d4:	8b 44 24 c8          	mov    -0x38(%rsp),%eax
  4014d8:	69 c0 57 27 00 00    	imul   $0x2757,%eax,%eax
  4014de:	89 44 24 c8          	mov    %eax,-0x38(%rsp)
  4014e2:	8b 44 24 e0          	mov    -0x20(%rsp),%eax
  4014e6:	69 c0 47 f6 00 00    	imul   $0xf647,%eax,%eax
  4014ec:	89 44 24 e0          	mov    %eax,-0x20(%rsp)
  4014f0:	8b 44 24 d4          	mov    -0x2c(%rsp),%eax
  4014f4:	69 c0 d2 ba 00 00    	imul   $0xbad2,%eax,%eax
  4014fa:	89 44 24 d4          	mov    %eax,-0x2c(%rsp)
  4014fe:	8b 44 24 ec          	mov    -0x14(%rsp),%eax
  401502:	69 c0 46 d0 00 00    	imul   $0xd046,%eax,%eax
  401508:	89 44 24 ec          	mov    %eax,-0x14(%rsp)
  40150c:	8b 44 24 d8          	mov    -0x28(%rsp),%eax
  401510:	69 c0 12 80 00 00    	imul   $0x8012,%eax,%eax
  401516:	89 44 24 d8          	mov    %eax,-0x28(%rsp)
  40151a:	8b 44 24 dc          	mov    -0x24(%rsp),%eax
  40151e:	69 c0 c6 77 00 00    	imul   $0x77c6,%eax,%eax
  401524:	89 44 24 dc          	mov    %eax,-0x24(%rsp)
  401528:	8b 44 24 cc          	mov    -0x34(%rsp),%eax
  40152c:	69 c0 65 b6 00 00    	imul   $0xb665,%eax,%eax
  401532:	89 44 24 cc          	mov    %eax,-0x34(%rsp)
  401536:	8b 44 24 e4          	mov    -0x1c(%rsp),%eax
  40153a:	69 c0 21 bd 00 00    	imul   $0xbd21,%eax,%eax
  401540:	89 44 24 e4          	mov    %eax,-0x1c(%rsp)
  401544:	8b 44 24 d8          	mov    -0x28(%rsp),%eax
  401548:	69 c0 11 f1 00 00    	imul   $0xf111,%eax,%eax
  40154e:	89 44 24 d8          	mov    %eax,-0x28(%rsp)
  401552:	8b 44 24 d4          	mov    -0x2c(%rsp),%eax
  401556:	69 c0 2f b7 00 00    	imul   $0xb72f,%eax,%eax
  40155c:	89 44 24 d4          	mov    %eax,-0x2c(%rsp)
  401560:	8b 44 24 e4          	mov    -0x1c(%rsp),%eax
  401564:	69 c0 45 bd 00 00    	imul   $0xbd45,%eax,%eax
  40156a:	89 44 24 e4          	mov    %eax,-0x1c(%rsp)
  40156e:	8b 44 24 dc          	mov    -0x24(%rsp),%eax
  401572:	69 c0 fe 05 00 00    	imul   $0x5fe,%eax,%eax
  401578:	89 44 24 dc          	mov    %eax,-0x24(%rsp)
  40157c:	8b 44 24 dc          	mov    -0x24(%rsp),%eax
  401580:	69 c0 b0 6a 00 00    	imul   $0x6ab0,%eax,%eax
  401586:	89 44 24 dc          	mov    %eax,-0x24(%rsp)
  40158a:	8b 44 24 c8          	mov    -0x38(%rsp),%eax
  40158e:	69 c0 a1 5d 00 00    	imul   $0x5da1,%eax,%eax
  401594:	89 44 24 c8          	mov    %eax,-0x38(%rsp)
  401598:	8b 44 24 e4          	mov    -0x1c(%rsp),%eax
  40159c:	69 c0 0c 8e 00 00    	imul   $0x8e0c,%eax,%eax
  4015a2:	89 44 24 e4          	mov    %eax,-0x1c(%rsp)
  4015a6:	8b 44 24 e0          	mov    -0x20(%rsp),%eax
  4015aa:	69 c0 b8 fb 00 00    	imul   $0xfbb8,%eax,%eax
  4015b0:	89 44 24 e0          	mov    %eax,-0x20(%rsp)
  4015b4:	8b 44 24 e4          	mov    -0x1c(%rsp),%eax
  4015b8:	69 c0 47 9e 00 00    	imul   $0x9e47,%eax,%eax
  4015be:	89 44 24 e4          	mov    %eax,-0x1c(%rsp)
  4015c2:	8b 44 24 dc          	mov    -0x24(%rsp),%eax
  4015c6:	69 c0 d0 df 00 00    	imul   $0xdfd0,%eax,%eax
  4015cc:	89 44 24 dc          	mov    %eax,-0x24(%rsp)
  4015d0:	8b 44 24 e8          	mov    -0x18(%rsp),%eax
  4015d4:	69 c0 22 cb 00 00    	imul   $0xcb22,%eax,%eax
  4015da:	89 44 24 e8          	mov    %eax,-0x18(%rsp)
  4015de:	8b 44 24 d8          	mov    -0x28(%rsp),%eax
  4015e2:	69 c0 fd 73 00 00    	imul   $0x73fd,%eax,%eax
  4015e8:	89 44 24 d8          	mov    %eax,-0x28(%rsp)
  4015ec:	8b 44 24 e4          	mov    -0x1c(%rsp),%eax
  4015f0:	69 c0 26 e1 00 00    	imul   $0xe126,%eax,%eax
  4015f6:	89 44 24 e4          	mov    %eax,-0x1c(%rsp)
  4015fa:	8b 44 24 d8          	mov    -0x28(%rsp),%eax
  4015fe:	69 c0 4f 5d 00 00    	imul   $0x5d4f,%eax,%eax
  401604:	89 44 24 d8          	mov    %eax,-0x28(%rsp)
  401608:	8b 44 24 d4          	mov    -0x2c(%rsp),%eax
  40160c:	69 c0 97 c7 00 00    	imul   $0xc797,%eax,%eax
  401612:	89 44 24 d4          	mov    %eax,-0x2c(%rsp)
  401616:	8b 44 24 d0          	mov    -0x30(%rsp),%eax
  40161a:	69 c0 b1 a4 00 00    	imul   $0xa4b1,%eax,%eax
  401620:	89 44 24 d0          	mov    %eax,-0x30(%rsp)
  401624:	8b 44 24 d8          	mov    -0x28(%rsp),%eax
  401628:	69 c0 1b 1a 00 00    	imul   $0x1a1b,%eax,%eax
  40162e:	89 44 24 d8          	mov    %eax,-0x28(%rsp)
  401632:	8b 44 24 dc          	mov    -0x24(%rsp),%eax
  401636:	69 c0 ab 7f 00 00    	imul   $0x7fab,%eax,%eax
  40163c:	89 44 24 dc          	mov    %eax,-0x24(%rsp)
  401640:	8b 44 24 cc          	mov    -0x34(%rsp),%eax
  401644:	69 c0 43 64 00 00    	imul   $0x6443,%eax,%eax
  40164a:	89 44 24 cc          	mov    %eax,-0x34(%rsp)
  40164e:	8b 44 24 dc          	mov    -0x24(%rsp),%eax
  401652:	69 c0 a4 a3 00 00    	imul   $0xa3a4,%eax,%eax
  401658:	89 44 24 dc          	mov    %eax,-0x24(%rsp)
  40165c:	8b 44 24 cc          	mov    -0x34(%rsp),%eax
  401660:	69 c0 1a 3c 00 00    	imul   $0x3c1a,%eax,%eax
  401666:	89 44 24 cc          	mov    %eax,-0x34(%rsp)
  40166a:	8b 44 24 cc          	mov    -0x34(%rsp),%eax
  40166e:	69 c0 a1 33 00 00    	imul   $0x33a1,%eax,%eax
  401674:	89 44 24 cc          	mov    %eax,-0x34(%rsp)
  401678:	8b 44 24 ec          	mov    -0x14(%rsp),%eax
  40167c:	69 c0 59 92 00 00    	imul   $0x9259,%eax,%eax
  401682:	89 44 24 ec          	mov    %eax,-0x14(%rsp)
  401686:	8b 44 24 e8          	mov    -0x18(%rsp),%eax
  40168a:	69 c0 8b 7f 00 00    	imul   $0x7f8b,%eax,%eax
  401690:	89 44 24 e8          	mov    %eax,-0x18(%rsp)
  401694:	8b 44 24 d4          	mov    -0x2c(%rsp),%eax
  401698:	69 c0 59 21 00 00    	imul   $0x2159,%eax,%eax
  40169e:	89 44 24 d4          	mov    %eax,-0x2c(%rsp)
  4016a2:	8b 44 24 cc          	mov    -0x34(%rsp),%eax
  4016a6:	69 c0 ba 89 00 00    	imul   $0x89ba,%eax,%eax
  4016ac:	89 44 24 cc          	mov    %eax,-0x34(%rsp)
  4016b0:	8b 44 24 cc          	mov    -0x34(%rsp),%eax
  4016b4:	69 c0 71 0f 00 00    	imul   $0xf71,%eax,%eax
  4016ba:	89 44 24 cc          	mov    %eax,-0x34(%rsp)
  4016be:	8b 44 24 e0          	mov    -0x20(%rsp),%eax
  4016c2:	69 c0 b0 37 00 00    	imul   $0x37b0,%eax,%eax
  4016c8:	89 44 24 e0          	mov    %eax,-0x20(%rsp)
  4016cc:	8b 44 24 ec          	mov    -0x14(%rsp),%eax
  4016d0:	69 c0 7a e9 00 00    	imul   $0xe97a,%eax,%eax
  4016d6:	89 44 24 ec          	mov    %eax,-0x14(%rsp)
  4016da:	8b 44 24 cc          	mov    -0x34(%rsp),%eax
  4016de:	69 c0 24 88 00 00    	imul   $0x8824,%eax,%eax
  4016e4:	89 44 24 cc          	mov    %eax,-0x34(%rsp)
  4016e8:	8b 44 24 d4          	mov    -0x2c(%rsp),%eax
  4016ec:	69 c0 70 af 00 00    	imul   $0xaf70,%eax,%eax
  4016f2:	89 44 24 d4          	mov    %eax,-0x2c(%rsp)
  4016f6:	8b 44 24 d8          	mov    -0x28(%rsp),%eax
  4016fa:	69 c0 ba 69 00 00    	imul   $0x69ba,%eax,%eax
  401700:	89 44 24 d8          	mov    %eax,-0x28(%rsp)
  401704:	8b 44 24 d4          	mov    -0x2c(%rsp),%eax
  401708:	69 c0 b5 88 00 00    	imul   $0x88b5,%eax,%eax
  40170e:	89 44 24 d4          	mov    %eax,-0x2c(%rsp)
  401712:	8b 44 24 d0          	mov    -0x30(%rsp),%eax
  401716:	69 c0 ed a0 00 00    	imul   $0xa0ed,%eax,%eax
  40171c:	89 44 24 d0          	mov    %eax,-0x30(%rsp)
  401720:	8b 44 24 d4          	mov    -0x2c(%rsp),%eax
  401724:	69 c0 0f 6f 00 00    	imul   $0x6f0f,%eax,%eax
  40172a:	89 44 24 d4          	mov    %eax,-0x2c(%rsp)
  40172e:	8b 44 24 d4          	mov    -0x2c(%rsp),%eax
  401732:	69 c0 eb bb 00 00    	imul   $0xbbeb,%eax,%eax
  401738:	89 44 24 d4          	mov    %eax,-0x2c(%rsp)
  40173c:	8b 44 24 e4          	mov    -0x1c(%rsp),%eax
  401740:	69 c0 d6 45 00 00    	imul   $0x45d6,%eax,%eax
  401746:	89 44 24 e4          	mov    %eax,-0x1c(%rsp)
  40174a:	8b 44 24 dc          	mov    -0x24(%rsp),%eax
  40174e:	69 c0 50 75 00 00    	imul   $0x7550,%eax,%eax
  401754:	89 44 24 dc          	mov    %eax,-0x24(%rsp)
  401758:	8b 44 24 dc          	mov    -0x24(%rsp),%eax
  40175c:	69 c0 e6 1e 00 00    	imul   $0x1ee6,%eax,%eax
  401762:	89 44 24 dc          	mov    %eax,-0x24(%rsp)
  401766:	8b 44 24 ec          	mov    -0x14(%rsp),%eax
  40176a:	69 c0 d0 08 00 00    	imul   $0x8d0,%eax,%eax
  401770:	89 44 24 ec          	mov    %eax,-0x14(%rsp)
  401774:	8b 44 24 c8          	mov    -0x38(%rsp),%eax
  401778:	69 c0 36 54 00 00    	imul   $0x5436,%eax,%eax
  40177e:	89 44 24 c8          	mov    %eax,-0x38(%rsp)
  401782:	8b 44 24 d0          	mov    -0x30(%rsp),%eax
  401786:	69 c0 bb 2c 00 00    	imul   $0x2cbb,%eax,%eax
  40178c:	89 44 24 d0          	mov    %eax,-0x30(%rsp)
  401790:	8b 44 24 ec          	mov    -0x14(%rsp),%eax
  401794:	69 c0 41 90 00 00    	imul   $0x9041,%eax,%eax
  40179a:	89 44 24 ec          	mov    %eax,-0x14(%rsp)
  40179e:	8b 44 24 d4          	mov    -0x2c(%rsp),%eax
  4017a2:	69 c0 40 54 00 00    	imul   $0x5440,%eax,%eax
  4017a8:	89 44 24 d4          	mov    %eax,-0x2c(%rsp)
  4017ac:	8b 44 24 d0          	mov    -0x30(%rsp),%eax
  4017b0:	69 c0 6a f9 00 00    	imul   $0xf96a,%eax,%eax
  4017b6:	89 44 24 d0          	mov    %eax,-0x30(%rsp)
  4017ba:	8b 44 24 e4          	mov    -0x1c(%rsp),%eax
  4017be:	69 c0 cd 2a 00 00    	imul   $0x2acd,%eax,%eax
  4017c4:	89 44 24 e4          	mov    %eax,-0x1c(%rsp)
  4017c8:	8b 44 24 cc          	mov    -0x34(%rsp),%eax
  4017cc:	69 c0 39 09 00 00    	imul   $0x939,%eax,%eax
  4017d2:	89 44 24 cc          	mov    %eax,-0x34(%rsp)
  4017d6:	8b 44 24 e0          	mov    -0x20(%rsp),%eax
  4017da:	69 c0 67 72 00 00    	imul   $0x7267,%eax,%eax
  4017e0:	89 44 24 e0          	mov    %eax,-0x20(%rsp)
  4017e4:	8b 44 24 e0          	mov    -0x20(%rsp),%eax
  4017e8:	69 c0 ec 7d 00 00    	imul   $0x7dec,%eax,%eax
  4017ee:	89 44 24 e0          	mov    %eax,-0x20(%rsp)
  4017f2:	8b 44 24 cc          	mov    -0x34(%rsp),%eax
  4017f6:	69 c0 e6 7e 00 00    	imul   $0x7ee6,%eax,%eax
  4017fc:	89 44 24 cc          	mov    %eax,-0x34(%rsp)
  401800:	8b 44 24 ec          	mov    -0x14(%rsp),%eax
  401804:	69 c0 e5 57 00 00    	imul   $0x57e5,%eax,%eax
  40180a:	89 44 24 ec          	mov    %eax,-0x14(%rsp)
  40180e:	8b 44 24 dc          	mov    -0x24(%rsp),%eax
  401812:	69 c0 25 98 00 00    	imul   $0x9825,%eax,%eax
  401818:	89 44 24 dc          	mov    %eax,-0x24(%rsp)
  40181c:	8b 44 24 d4          	mov    -0x2c(%rsp),%eax
  401820:	69 c0 5e 2a 00 00    	imul   $0x2a5e,%eax,%eax
  401826:	89 44 24 d4          	mov    %eax,-0x2c(%rsp)
  40182a:	8b 44 24 e4          	mov    -0x1c(%rsp),%eax
  40182e:	69 c0 eb 75 00 00    	imul   $0x75eb,%eax,%eax
  401834:	89 44 24 e4          	mov    %eax,-0x1c(%rsp)
  401838:	8b 44 24 e4          	mov    -0x1c(%rsp),%eax
  40183c:	69 c0 51 02 00 00    	imul   $0x251,%eax,%eax
  401842:	89 44 24 e4          	mov    %eax,-0x1c(%rsp)
  401846:	8b 44 24 cc          	mov    -0x34(%rsp),%eax
  40184a:	69 c0 84 89 00 00    	imul   $0x8984,%eax,%eax
  401850:	89 44 24 cc          	mov    %eax,-0x34(%rsp)
  401854:	8b 44 24 ec          	mov    -0x14(%rsp),%eax
  401858:	69 c0 45 11 00 00    	imul   $0x1145,%eax,%eax
  40185e:	89 44 24 ec          	mov    %eax,-0x14(%rsp)
  401862:	8b 44 24 d0          	mov    -0x30(%rsp),%eax
  401866:	69 c0 2f ba 00 00    	imul   $0xba2f,%eax,%eax
  40186c:	89 44 24 d0          	mov    %eax,-0x30(%rsp)
  401870:	8b 44 24 dc          	mov    -0x24(%rsp),%eax
  401874:	69 c0 aa 1a 00 00    	imul   $0x1aaa,%eax,%eax
  40187a:	89 44 24 dc          	mov    %eax,-0x24(%rsp)
  40187e:	8b 44 24 d4          	mov    -0x2c(%rsp),%eax
  401882:	69 c0 41 1b 00 00    	imul   $0x1b41,%eax,%eax
  401888:	89 44 24 d4          	mov    %eax,-0x2c(%rsp)
  40188c:	8b 44 24 d0          	mov    -0x30(%rsp),%eax
  401890:	69 c0 d3 ea 00 00    	imul   $0xead3,%eax,%eax
  401896:	89 44 24 d0          	mov    %eax,-0x30(%rsp)
  40189a:	8b 44 24 d8          	mov    -0x28(%rsp),%eax
  40189e:	69 c0 f0 bc 00 00    	imul   $0xbcf0,%eax,%eax
  4018a4:	89 44 24 d8          	mov    %eax,-0x28(%rsp)
  4018a8:	8b 44 24 dc          	mov    -0x24(%rsp),%eax
  4018ac:	69 c0 95 da 00 00    	imul   $0xda95,%eax,%eax
  4018b2:	89 44 24 dc          	mov    %eax,-0x24(%rsp)
  4018b6:	8b 44 24 d0          	mov    -0x30(%rsp),%eax
  4018ba:	69 c0 fa 85 00 00    	imul   $0x85fa,%eax,%eax
  4018c0:	89 44 24 d0          	mov    %eax,-0x30(%rsp)
  4018c4:	8b 44 24 c8          	mov    -0x38(%rsp),%eax
  4018c8:	69 c0 ab 42 00 00    	imul   $0x42ab,%eax,%eax
  4018ce:	89 44 24 c8          	mov    %eax,-0x38(%rsp)
  4018d2:	8b 44 24 c8          	mov    -0x38(%rsp),%eax
  4018d6:	69 c0 7d 45 00 00    	imul   $0x457d,%eax,%eax
  4018dc:	89 44 24 c8          	mov    %eax,-0x38(%rsp)
  4018e0:	8b 44 24 d0          	mov    -0x30(%rsp),%eax
  4018e4:	69 c0 b2 3f 00 00    	imul   $0x3fb2,%eax,%eax
  4018ea:	89 44 24 d0          	mov    %eax,-0x30(%rsp)
  4018ee:	ba 00 00 00 00       	mov    $0x0,%edx
  4018f3:	b8 00 00 00 00       	mov    $0x0,%eax
  4018f8:	eb 0b                	jmp    401905 <scramble+0x566>
  4018fa:	89 d1                	mov    %edx,%ecx
  4018fc:	8b 4c 8c c8          	mov    -0x38(%rsp,%rcx,4),%ecx
  401900:	01 c8                	add    %ecx,%eax
  401902:	83 c2 01             	add    $0x1,%edx
  401905:	83 fa 09             	cmp    $0x9,%edx
  401908:	76 f0                	jbe    4018fa <scramble+0x55b>
  40190a:	f3 c3                	repz retq 

000000000040190c <getbuf>:
  40190c:	48 83 ec 38          	sub    $0x38,%rsp
  401910:	48 89 e7             	mov    %rsp,%rdi
  401913:	e8 a1 03 00 00       	callq  401cb9 <Gets>
  401918:	b8 01 00 00 00       	mov    $0x1,%eax
  40191d:	48 83 c4 38          	add    $0x38,%rsp
  401921:	c3                   	retq   

0000000000401922 <touch1>:
  401922:	48 83 ec 08          	sub    $0x8,%rsp
  401926:	c7 05 ec 3b 20 00 01 	movl   $0x1,0x203bec(%rip)        # 60551c <vlevel>
  40192d:	00 00 00 
  401930:	bf 36 33 40 00       	mov    $0x403336,%edi
  401935:	e8 a6 f3 ff ff       	callq  400ce0 <puts@plt>
  40193a:	bf 01 00 00 00       	mov    $0x1,%edi
  40193f:	e8 ba 05 00 00       	callq  401efe <validate>
  401944:	bf 00 00 00 00       	mov    $0x0,%edi
  401949:	e8 22 f5 ff ff       	callq  400e70 <exit@plt>

000000000040194e <touch2>:
  40194e:	48 83 ec 08          	sub    $0x8,%rsp
  401952:	89 fa                	mov    %edi,%edx
  401954:	c7 05 be 3b 20 00 02 	movl   $0x2,0x203bbe(%rip)        # 60551c <vlevel>
  40195b:	00 00 00 
  40195e:	39 3d c0 3b 20 00    	cmp    %edi,0x203bc0(%rip)        # 605524 <cookie>
  401964:	75 20                	jne    401986 <touch2+0x38>
  401966:	be 58 33 40 00       	mov    $0x403358,%esi
  40196b:	bf 01 00 00 00       	mov    $0x1,%edi
  401970:	b8 00 00 00 00       	mov    $0x0,%eax
  401975:	e8 a6 f4 ff ff       	callq  400e20 <__printf_chk@plt>
  40197a:	bf 02 00 00 00       	mov    $0x2,%edi
  40197f:	e8 7a 05 00 00       	callq  401efe <validate>
  401984:	eb 1e                	jmp    4019a4 <touch2+0x56>
  401986:	be 80 33 40 00       	mov    $0x403380,%esi
  40198b:	bf 01 00 00 00       	mov    $0x1,%edi
  401990:	b8 00 00 00 00       	mov    $0x0,%eax
  401995:	e8 86 f4 ff ff       	callq  400e20 <__printf_chk@plt>
  40199a:	bf 02 00 00 00       	mov    $0x2,%edi
  40199f:	e8 1c 06 00 00       	callq  401fc0 <fail>
  4019a4:	bf 00 00 00 00       	mov    $0x0,%edi
  4019a9:	e8 c2 f4 ff ff       	callq  400e70 <exit@plt>

00000000004019ae <hexmatch>:
  4019ae:	41 54                	push   %r12
  4019b0:	55                   	push   %rbp
  4019b1:	53                   	push   %rbx
  4019b2:	48 83 c4 80          	add    $0xffffffffffffff80,%rsp
  4019b6:	89 fd                	mov    %edi,%ebp
  4019b8:	48 89 f3             	mov    %rsi,%rbx
  4019bb:	64 48 8b 04 25 28 00 	mov    %fs:0x28,%rax
  4019c2:	00 00 
  4019c4:	48 89 44 24 78       	mov    %rax,0x78(%rsp)
  4019c9:	31 c0                	xor    %eax,%eax
  4019cb:	e8 10 f4 ff ff       	callq  400de0 <random@plt>
  4019d0:	48 89 c1             	mov    %rax,%rcx
  4019d3:	48 ba 0b d7 a3 70 3d 	movabs $0xa3d70a3d70a3d70b,%rdx
  4019da:	0a d7 a3 
  4019dd:	48 f7 ea             	imul   %rdx
  4019e0:	48 01 ca             	add    %rcx,%rdx
  4019e3:	48 c1 fa 06          	sar    $0x6,%rdx
  4019e7:	48 89 c8             	mov    %rcx,%rax
  4019ea:	48 c1 f8 3f          	sar    $0x3f,%rax
  4019ee:	48 29 c2             	sub    %rax,%rdx
  4019f1:	48 8d 04 92          	lea    (%rdx,%rdx,4),%rax
  4019f5:	48 8d 14 80          	lea    (%rax,%rax,4),%rdx
  4019f9:	48 8d 04 95 00 00 00 	lea    0x0(,%rdx,4),%rax
  401a00:	00 
  401a01:	48 29 c1             	sub    %rax,%rcx
  401a04:	4c 8d 24 0c          	lea    (%rsp,%rcx,1),%r12
  401a08:	41 89 e8             	mov    %ebp,%r8d
  401a0b:	b9 53 33 40 00       	mov    $0x403353,%ecx
  401a10:	48 c7 c2 ff ff ff ff 	mov    $0xffffffffffffffff,%rdx
  401a17:	be 01 00 00 00       	mov    $0x1,%esi
  401a1c:	4c 89 e7             	mov    %r12,%rdi
  401a1f:	b8 00 00 00 00       	mov    $0x0,%eax
  401a24:	e8 77 f4 ff ff       	callq  400ea0 <__sprintf_chk@plt>
  401a29:	ba 09 00 00 00       	mov    $0x9,%edx
  401a2e:	4c 89 e6             	mov    %r12,%rsi
  401a31:	48 89 df             	mov    %rbx,%rdi
  401a34:	e8 87 f2 ff ff       	callq  400cc0 <strncmp@plt>
  401a39:	85 c0                	test   %eax,%eax
  401a3b:	0f 94 c0             	sete   %al
  401a3e:	48 8b 5c 24 78       	mov    0x78(%rsp),%rbx
  401a43:	64 48 33 1c 25 28 00 	xor    %fs:0x28,%rbx
  401a4a:	00 00 
  401a4c:	74 05                	je     401a53 <hexmatch+0xa5>
  401a4e:	e8 ad f2 ff ff       	callq  400d00 <__stack_chk_fail@plt>
  401a53:	0f b6 c0             	movzbl %al,%eax
  401a56:	48 83 ec 80          	sub    $0xffffffffffffff80,%rsp
  401a5a:	5b                   	pop    %rbx
  401a5b:	5d                   	pop    %rbp
  401a5c:	41 5c                	pop    %r12
  401a5e:	c3                   	retq   

0000000000401a5f <touch3>:
  401a5f:	53                   	push   %rbx
  401a60:	48 89 fb             	mov    %rdi,%rbx
  401a63:	c7 05 af 3a 20 00 03 	movl   $0x3,0x203aaf(%rip)        # 60551c <vlevel>
  401a6a:	00 00 00 
  401a6d:	48 89 fe             	mov    %rdi,%rsi
  401a70:	8b 3d ae 3a 20 00    	mov    0x203aae(%rip),%edi        # 605524 <cookie>
  401a76:	e8 33 ff ff ff       	callq  4019ae <hexmatch>
  401a7b:	85 c0                	test   %eax,%eax
  401a7d:	74 23                	je     401aa2 <touch3+0x43>
  401a7f:	48 89 da             	mov    %rbx,%rdx
  401a82:	be a8 33 40 00       	mov    $0x4033a8,%esi
  401a87:	bf 01 00 00 00       	mov    $0x1,%edi
  401a8c:	b8 00 00 00 00       	mov    $0x0,%eax
  401a91:	e8 8a f3 ff ff       	callq  400e20 <__printf_chk@plt>
  401a96:	bf 03 00 00 00       	mov    $0x3,%edi
  401a9b:	e8 5e 04 00 00       	callq  401efe <validate>
  401aa0:	eb 21                	jmp    401ac3 <touch3+0x64>
  401aa2:	48 89 da             	mov    %rbx,%rdx
  401aa5:	be d0 33 40 00       	mov    $0x4033d0,%esi
  401aaa:	bf 01 00 00 00       	mov    $0x1,%edi
  401aaf:	b8 00 00 00 00       	mov    $0x0,%eax
  401ab4:	e8 67 f3 ff ff       	callq  400e20 <__printf_chk@plt>
  401ab9:	bf 03 00 00 00       	mov    $0x3,%edi
  401abe:	e8 fd 04 00 00       	callq  401fc0 <fail>
  401ac3:	bf 00 00 00 00       	mov    $0x0,%edi
  401ac8:	e8 a3 f3 ff ff       	callq  400e70 <exit@plt>

0000000000401acd <test>:
  401acd:	48 83 ec 08          	sub    $0x8,%rsp
  401ad1:	b8 00 00 00 00       	mov    $0x0,%eax
  401ad6:	e8 31 fe ff ff       	callq  40190c <getbuf>
  401adb:	89 c2                	mov    %eax,%edx
  401add:	be f8 33 40 00       	mov    $0x4033f8,%esi
  401ae2:	bf 01 00 00 00       	mov    $0x1,%edi
  401ae7:	b8 00 00 00 00       	mov    $0x0,%eax
  401aec:	e8 2f f3 ff ff       	callq  400e20 <__printf_chk@plt>
  401af1:	48 83 c4 08          	add    $0x8,%rsp
  401af5:	c3                   	retq   

0000000000401af6 <start_farm>:
  401af6:	b8 01 00 00 00       	mov    $0x1,%eax
  401afb:	c3                   	retq   

0000000000401afc <addval_472>:
  401afc:	8d 87 58 89 c7 90    	lea    -0x6f3876a8(%rdi),%eax
  401b02:	c3                   	retq   

0000000000401b03 <setval_297>:
  401b03:	c7 07 18 90 c3 da    	movl   $0xdac39018,(%rdi)
  401b09:	c3                   	retq   

0000000000401b0a <setval_423>:
  401b0a:	c7 07 48 89 c7 c3    	movl   $0xc3c78948,(%rdi)
  401b10:	c3                   	retq   

0000000000401b11 <addval_279>:
  401b11:	8d 87 48 89 c7 c2    	lea    -0x3d3876b8(%rdi),%eax
  401b17:	c3                   	retq   

0000000000401b18 <getval_115>:
  401b18:	b8 58 90 90 90       	mov    $0x90909058,%eax
  401b1d:	c3                   	retq   

0000000000401b1e <getval_375>:
  401b1e:	b8 8d 57 58 90       	mov    $0x9058578d,%eax
  401b23:	c3                   	retq   

0000000000401b24 <getval_156>:
  401b24:	b8 85 50 c3 78       	mov    $0x78c35085,%eax
  401b29:	c3                   	retq   

0000000000401b2a <getval_136>:
  401b2a:	b8 48 89 c7 90       	mov    $0x90c78948,%eax
  401b2f:	c3                   	retq   

0000000000401b30 <mid_farm>:
  401b30:	b8 01 00 00 00       	mov    $0x1,%eax
  401b35:	c3                   	retq   

0000000000401b36 <add_xy>:
  401b36:	48 8d 04 37          	lea    (%rdi,%rsi,1),%rax
  401b3a:	c3                   	retq   

0000000000401b3b <getval_211>:
  401b3b:	b8 89 ce 00 c9       	mov    $0xc900ce89,%eax
  401b40:	c3                   	retq   

0000000000401b41 <addval_481>:
  401b41:	8d 87 c9 c2 c3 b7    	lea    -0x483c3d37(%rdi),%eax
  401b47:	c3                   	retq   

0000000000401b48 <addval_296>:
  401b48:	8d 87 89 c2 30 c0    	lea    -0x3fcf3d77(%rdi),%eax
  401b4e:	c3                   	retq   

0000000000401b4f <addval_413>:
  401b4f:	8d 87 8b d1 20 c0    	lea    -0x3fdf2e75(%rdi),%eax
  401b55:	c3                   	retq   

0000000000401b56 <addval_416>:
  401b56:	8d 87 85 81 88 d1    	lea    -0x2e777e7b(%rdi),%eax
  401b5c:	c3                   	retq   

0000000000401b5d <addval_455>:
  401b5d:	8d 87 89 d1 78 db    	lea    -0x24872e77(%rdi),%eax
  401b63:	c3                   	retq   

0000000000401b64 <setval_207>:
  401b64:	c7 07 89 ce 38 db    	movl   $0xdb38ce89,(%rdi)
  401b6a:	c3                   	retq   

0000000000401b6b <setval_197>:
  401b6b:	c7 07 90 48 89 e0    	movl   $0xe0894890,(%rdi)
  401b71:	c3                   	retq   

0000000000401b72 <getval_438>:
  401b72:	b8 88 ce 20 d2       	mov    $0xd220ce88,%eax
  401b77:	c3                   	retq   

0000000000401b78 <setval_354>:
  401b78:	c7 07 89 c2 90 c3    	movl   $0xc390c289,(%rdi)
  401b7e:	c3                   	retq   

0000000000401b7f <getval_229>:
  401b7f:	b8 89 d1 90 c3       	mov    $0xc390d189,%eax
  401b84:	c3                   	retq   

0000000000401b85 <setval_319>:
  401b85:	c7 07 4c 89 e0 c3    	movl   $0xc3e0894c,(%rdi)
  401b8b:	c3                   	retq   

0000000000401b8c <setval_266>:
  401b8c:	c7 07 b0 89 ce 92    	movl   $0x92ce89b0,(%rdi)
  401b92:	c3                   	retq   

0000000000401b93 <getval_446>:
  401b93:	b8 8b d1 c3 3f       	mov    $0x3fc3d18b,%eax
  401b98:	c3                   	retq   

0000000000401b99 <setval_358>:
  401b99:	c7 07 89 c2 60 d2    	movl   $0xd260c289,(%rdi)
  401b9f:	c3                   	retq   

0000000000401ba0 <getval_470>:
  401ba0:	b8 99 c2 08 c9       	mov    $0xc908c299,%eax
  401ba5:	c3                   	retq   

0000000000401ba6 <addval_303>:
  401ba6:	8d 87 89 ce 90 c3    	lea    -0x3c6f3177(%rdi),%eax
  401bac:	c3                   	retq   

0000000000401bad <setval_469>:
  401bad:	c7 07 68 89 e0 90    	movl   $0x90e08968,(%rdi)
  401bb3:	c3                   	retq   

0000000000401bb4 <setval_206>:
  401bb4:	c7 07 7c 48 8b e0    	movl   $0xe08b487c,(%rdi)
  401bba:	c3                   	retq   

0000000000401bbb <setval_107>:
  401bbb:	c7 07 89 c2 a4 db    	movl   $0xdba4c289,(%rdi)
  401bc1:	c3                   	retq   

0000000000401bc2 <addval_343>:
  401bc2:	8d 87 4e 89 ce 91    	lea    -0x6e3176b2(%rdi),%eax
  401bc8:	c3                   	retq   

0000000000401bc9 <addval_398>:
  401bc9:	8d 87 b2 eb 89 c2    	lea    -0x3d76144e(%rdi),%eax
  401bcf:	c3                   	retq   

0000000000401bd0 <addval_260>:
  401bd0:	8d 87 89 d1 94 c3    	lea    -0x3c6b2e77(%rdi),%eax
  401bd6:	c3                   	retq   

0000000000401bd7 <getval_121>:
  401bd7:	b8 48 89 e0 c1       	mov    $0xc1e08948,%eax
  401bdc:	c3                   	retq   

0000000000401bdd <getval_273>:
  401bdd:	b8 48 89 e0 c2       	mov    $0xc2e08948,%eax
  401be2:	c3                   	retq   

0000000000401be3 <addval_321>:
  401be3:	8d 87 48 89 e0 94    	lea    -0x6b1f76b8(%rdi),%eax
  401be9:	c3                   	retq   

0000000000401bea <addval_326>:
  401bea:	8d 87 89 c2 94 db    	lea    -0x246b3d77(%rdi),%eax
  401bf0:	c3                   	retq   

0000000000401bf1 <setval_396>:
  401bf1:	c7 07 89 d1 84 c9    	movl   $0xc984d189,(%rdi)
  401bf7:	c3                   	retq   

0000000000401bf8 <getval_453>:
  401bf8:	b8 c4 81 d1 c3       	mov    $0xc3d181c4,%eax
  401bfd:	c3                   	retq   

0000000000401bfe <addval_352>:
  401bfe:	8d 87 81 ce 08 c0    	lea    -0x3ff7317f(%rdi),%eax
  401c04:	c3                   	retq   

0000000000401c05 <addval_116>:
  401c05:	8d 87 48 89 e0 90    	lea    -0x6f1f76b8(%rdi),%eax
  401c0b:	c3                   	retq   

0000000000401c0c <setval_435>:
  401c0c:	c7 07 29 89 ce 92    	movl   $0x92ce8929,(%rdi)
  401c12:	c3                   	retq   

0000000000401c13 <end_farm>:
  401c13:	b8 01 00 00 00       	mov    $0x1,%eax
  401c18:	c3                   	retq   

0000000000401c19 <save_char>:
  401c19:	8b 05 25 45 20 00    	mov    0x204525(%rip),%eax        # 606144 <gets_cnt>
  401c1f:	3d ff 03 00 00       	cmp    $0x3ff,%eax
  401c24:	7f 49                	jg     401c6f <save_char+0x56>
  401c26:	8d 14 40             	lea    (%rax,%rax,2),%edx
  401c29:	89 f9                	mov    %edi,%ecx
  401c2b:	c0 e9 04             	shr    $0x4,%cl
  401c2e:	83 e1 0f             	and    $0xf,%ecx
  401c31:	0f b6 b1 20 37 40 00 	movzbl 0x403720(%rcx),%esi
  401c38:	48 63 ca             	movslq %edx,%rcx
  401c3b:	40 88 b1 40 55 60 00 	mov    %sil,0x605540(%rcx)
  401c42:	8d 4a 01             	lea    0x1(%rdx),%ecx
  401c45:	83 e7 0f             	and    $0xf,%edi
  401c48:	0f b6 b7 20 37 40 00 	movzbl 0x403720(%rdi),%esi
  401c4f:	48 63 c9             	movslq %ecx,%rcx
  401c52:	40 88 b1 40 55 60 00 	mov    %sil,0x605540(%rcx)
  401c59:	83 c2 02             	add    $0x2,%edx
  401c5c:	48 63 d2             	movslq %edx,%rdx
  401c5f:	c6 82 40 55 60 00 20 	movb   $0x20,0x605540(%rdx)
  401c66:	83 c0 01             	add    $0x1,%eax
  401c69:	89 05 d5 44 20 00    	mov    %eax,0x2044d5(%rip)        # 606144 <gets_cnt>
  401c6f:	f3 c3                	repz retq 

0000000000401c71 <save_term>:
  401c71:	8b 05 cd 44 20 00    	mov    0x2044cd(%rip),%eax        # 606144 <gets_cnt>
  401c77:	8d 04 40             	lea    (%rax,%rax,2),%eax
  401c7a:	48 98                	cltq   
  401c7c:	c6 80 40 55 60 00 00 	movb   $0x0,0x605540(%rax)
  401c83:	c3                   	retq   

0000000000401c84 <check_fail>:
  401c84:	48 83 ec 08          	sub    $0x8,%rsp
  401c88:	0f be 15 b9 44 20 00 	movsbl 0x2044b9(%rip),%edx        # 606148 <target_prefix>
  401c8f:	41 b8 40 55 60 00    	mov    $0x605540,%r8d
  401c95:	8b 0d 7d 38 20 00    	mov    0x20387d(%rip),%ecx        # 605518 <check_level>
  401c9b:	be 1b 34 40 00       	mov    $0x40341b,%esi
  401ca0:	bf 01 00 00 00       	mov    $0x1,%edi
  401ca5:	b8 00 00 00 00       	mov    $0x0,%eax
  401caa:	e8 71 f1 ff ff       	callq  400e20 <__printf_chk@plt>
  401caf:	bf 01 00 00 00       	mov    $0x1,%edi
  401cb4:	e8 b7 f1 ff ff       	callq  400e70 <exit@plt>

0000000000401cb9 <Gets>:
  401cb9:	41 54                	push   %r12
  401cbb:	55                   	push   %rbp
  401cbc:	53                   	push   %rbx
  401cbd:	49 89 fc             	mov    %rdi,%r12
  401cc0:	c7 05 7a 44 20 00 00 	movl   $0x0,0x20447a(%rip)        # 606144 <gets_cnt>
  401cc7:	00 00 00 
  401cca:	48 89 fb             	mov    %rdi,%rbx
  401ccd:	eb 11                	jmp    401ce0 <Gets+0x27>
  401ccf:	48 8d 6b 01          	lea    0x1(%rbx),%rbp
  401cd3:	88 03                	mov    %al,(%rbx)
  401cd5:	0f b6 f8             	movzbl %al,%edi
  401cd8:	e8 3c ff ff ff       	callq  401c19 <save_char>
  401cdd:	48 89 eb             	mov    %rbp,%rbx
  401ce0:	48 8b 3d 29 38 20 00 	mov    0x203829(%rip),%rdi        # 605510 <infile>
  401ce7:	e8 04 f1 ff ff       	callq  400df0 <_IO_getc@plt>
  401cec:	83 f8 ff             	cmp    $0xffffffff,%eax
  401cef:	74 05                	je     401cf6 <Gets+0x3d>
  401cf1:	83 f8 0a             	cmp    $0xa,%eax
  401cf4:	75 d9                	jne    401ccf <Gets+0x16>
  401cf6:	c6 03 00             	movb   $0x0,(%rbx)
  401cf9:	b8 00 00 00 00       	mov    $0x0,%eax
  401cfe:	e8 6e ff ff ff       	callq  401c71 <save_term>
  401d03:	4c 89 e0             	mov    %r12,%rax
  401d06:	5b                   	pop    %rbx
  401d07:	5d                   	pop    %rbp
  401d08:	41 5c                	pop    %r12
  401d0a:	c3                   	retq   

0000000000401d0b <notify_server>:
  401d0b:	53                   	push   %rbx
  401d0c:	48 81 ec 10 40 00 00 	sub    $0x4010,%rsp
  401d13:	64 48 8b 04 25 28 00 	mov    %fs:0x28,%rax
  401d1a:	00 00 
  401d1c:	48 89 84 24 08 40 00 	mov    %rax,0x4008(%rsp)
  401d23:	00 
  401d24:	31 c0                	xor    %eax,%eax
  401d26:	83 3d fb 37 20 00 00 	cmpl   $0x0,0x2037fb(%rip)        # 605528 <is_checker>
  401d2d:	0f 85 aa 01 00 00    	jne    401edd <notify_server+0x1d2>
  401d33:	89 fb                	mov    %edi,%ebx
  401d35:	8b 05 09 44 20 00    	mov    0x204409(%rip),%eax        # 606144 <gets_cnt>
  401d3b:	83 c0 64             	add    $0x64,%eax
  401d3e:	3d 00 20 00 00       	cmp    $0x2000,%eax
  401d43:	7e 1e                	jle    401d63 <notify_server+0x58>
  401d45:	be 50 35 40 00       	mov    $0x403550,%esi
  401d4a:	bf 01 00 00 00       	mov    $0x1,%edi
  401d4f:	b8 00 00 00 00       	mov    $0x0,%eax
  401d54:	e8 c7 f0 ff ff       	callq  400e20 <__printf_chk@plt>
  401d59:	bf 01 00 00 00       	mov    $0x1,%edi
  401d5e:	e8 0d f1 ff ff       	callq  400e70 <exit@plt>
  401d63:	0f be 05 de 43 20 00 	movsbl 0x2043de(%rip),%eax        # 606148 <target_prefix>
  401d6a:	83 3d 37 37 20 00 00 	cmpl   $0x0,0x203737(%rip)        # 6054a8 <notify>
  401d71:	74 08                	je     401d7b <notify_server+0x70>
  401d73:	8b 15 a7 37 20 00    	mov    0x2037a7(%rip),%edx        # 605520 <authkey>
  401d79:	eb 05                	jmp    401d80 <notify_server+0x75>
  401d7b:	ba ff ff ff ff       	mov    $0xffffffff,%edx
  401d80:	85 db                	test   %ebx,%ebx
  401d82:	74 08                	je     401d8c <notify_server+0x81>
  401d84:	41 b9 31 34 40 00    	mov    $0x403431,%r9d
  401d8a:	eb 06                	jmp    401d92 <notify_server+0x87>
  401d8c:	41 b9 36 34 40 00    	mov    $0x403436,%r9d
  401d92:	68 40 55 60 00       	pushq  $0x605540
  401d97:	56                   	push   %rsi
  401d98:	50                   	push   %rax
  401d99:	52                   	push   %rdx
  401d9a:	44 8b 05 c7 33 20 00 	mov    0x2033c7(%rip),%r8d        # 605168 <target_id>
  401da1:	b9 3b 34 40 00       	mov    $0x40343b,%ecx
  401da6:	ba 00 20 00 00       	mov    $0x2000,%edx
  401dab:	be 01 00 00 00       	mov    $0x1,%esi
  401db0:	48 8d 7c 24 20       	lea    0x20(%rsp),%rdi
  401db5:	b8 00 00 00 00       	mov    $0x0,%eax
  401dba:	e8 e1 f0 ff ff       	callq  400ea0 <__sprintf_chk@plt>
  401dbf:	48 83 c4 20          	add    $0x20,%rsp
  401dc3:	83 3d de 36 20 00 00 	cmpl   $0x0,0x2036de(%rip)        # 6054a8 <notify>
  401dca:	0f 84 81 00 00 00    	je     401e51 <notify_server+0x146>
  401dd0:	85 db                	test   %ebx,%ebx
  401dd2:	74 6e                	je     401e42 <notify_server+0x137>
  401dd4:	4c 8d 8c 24 00 20 00 	lea    0x2000(%rsp),%r9
  401ddb:	00 
  401ddc:	41 b8 00 00 00 00    	mov    $0x0,%r8d
  401de2:	48 89 e1             	mov    %rsp,%rcx
  401de5:	48 8b 15 84 33 20 00 	mov    0x203384(%rip),%rdx        # 605170 <lab>
  401dec:	48 8b 35 85 33 20 00 	mov    0x203385(%rip),%rsi        # 605178 <course>
  401df3:	48 8b 3d 66 33 20 00 	mov    0x203366(%rip),%rdi        # 605160 <user_id>
  401dfa:	e8 bb 10 00 00       	callq  402eba <driver_post>
  401dff:	85 c0                	test   %eax,%eax
  401e01:	79 26                	jns    401e29 <notify_server+0x11e>
  401e03:	48 8d 94 24 00 20 00 	lea    0x2000(%rsp),%rdx
  401e0a:	00 
  401e0b:	be 57 34 40 00       	mov    $0x403457,%esi
  401e10:	bf 01 00 00 00       	mov    $0x1,%edi
  401e15:	b8 00 00 00 00       	mov    $0x0,%eax
  401e1a:	e8 01 f0 ff ff       	callq  400e20 <__printf_chk@plt>
  401e1f:	bf 01 00 00 00       	mov    $0x1,%edi
  401e24:	e8 47 f0 ff ff       	callq  400e70 <exit@plt>
  401e29:	bf 80 35 40 00       	mov    $0x403580,%edi
  401e2e:	e8 ad ee ff ff       	callq  400ce0 <puts@plt>
  401e33:	bf 63 34 40 00       	mov    $0x403463,%edi
  401e38:	e8 a3 ee ff ff       	callq  400ce0 <puts@plt>
  401e3d:	e9 9b 00 00 00       	jmpq   401edd <notify_server+0x1d2>
  401e42:	bf 6d 34 40 00       	mov    $0x40346d,%edi
  401e47:	e8 94 ee ff ff       	callq  400ce0 <puts@plt>
  401e4c:	e9 8c 00 00 00       	jmpq   401edd <notify_server+0x1d2>
  401e51:	85 db                	test   %ebx,%ebx
  401e53:	74 07                	je     401e5c <notify_server+0x151>
  401e55:	ba 31 34 40 00       	mov    $0x403431,%edx
  401e5a:	eb 05                	jmp    401e61 <notify_server+0x156>
  401e5c:	ba 36 34 40 00       	mov    $0x403436,%edx
  401e61:	be b8 35 40 00       	mov    $0x4035b8,%esi
  401e66:	bf 01 00 00 00       	mov    $0x1,%edi
  401e6b:	b8 00 00 00 00       	mov    $0x0,%eax
  401e70:	e8 ab ef ff ff       	callq  400e20 <__printf_chk@plt>
  401e75:	48 8b 15 e4 32 20 00 	mov    0x2032e4(%rip),%rdx        # 605160 <user_id>
  401e7c:	be 74 34 40 00       	mov    $0x403474,%esi
  401e81:	bf 01 00 00 00       	mov    $0x1,%edi
  401e86:	b8 00 00 00 00       	mov    $0x0,%eax
  401e8b:	e8 90 ef ff ff       	callq  400e20 <__printf_chk@plt>
  401e90:	48 8b 15 e1 32 20 00 	mov    0x2032e1(%rip),%rdx        # 605178 <course>
  401e97:	be 81 34 40 00       	mov    $0x403481,%esi
  401e9c:	bf 01 00 00 00       	mov    $0x1,%edi
  401ea1:	b8 00 00 00 00       	mov    $0x0,%eax
  401ea6:	e8 75 ef ff ff       	callq  400e20 <__printf_chk@plt>
  401eab:	48 8b 15 be 32 20 00 	mov    0x2032be(%rip),%rdx        # 605170 <lab>
  401eb2:	be 8d 34 40 00       	mov    $0x40348d,%esi
  401eb7:	bf 01 00 00 00       	mov    $0x1,%edi
  401ebc:	b8 00 00 00 00       	mov    $0x0,%eax
  401ec1:	e8 5a ef ff ff       	callq  400e20 <__printf_chk@plt>
  401ec6:	48 89 e2             	mov    %rsp,%rdx
  401ec9:	be 96 34 40 00       	mov    $0x403496,%esi
  401ece:	bf 01 00 00 00       	mov    $0x1,%edi
  401ed3:	b8 00 00 00 00       	mov    $0x0,%eax
  401ed8:	e8 43 ef ff ff       	callq  400e20 <__printf_chk@plt>
  401edd:	48 8b 84 24 08 40 00 	mov    0x4008(%rsp),%rax
  401ee4:	00 
  401ee5:	64 48 33 04 25 28 00 	xor    %fs:0x28,%rax
  401eec:	00 00 
  401eee:	74 05                	je     401ef5 <notify_server+0x1ea>
  401ef0:	e8 0b ee ff ff       	callq  400d00 <__stack_chk_fail@plt>
  401ef5:	48 81 c4 10 40 00 00 	add    $0x4010,%rsp
  401efc:	5b                   	pop    %rbx
  401efd:	c3                   	retq   

0000000000401efe <validate>:
  401efe:	53                   	push   %rbx
  401eff:	89 fb                	mov    %edi,%ebx
  401f01:	83 3d 20 36 20 00 00 	cmpl   $0x0,0x203620(%rip)        # 605528 <is_checker>
  401f08:	74 6b                	je     401f75 <validate+0x77>
  401f0a:	39 3d 0c 36 20 00    	cmp    %edi,0x20360c(%rip)        # 60551c <vlevel>
  401f10:	74 14                	je     401f26 <validate+0x28>
  401f12:	bf a2 34 40 00       	mov    $0x4034a2,%edi
  401f17:	e8 c4 ed ff ff       	callq  400ce0 <puts@plt>
  401f1c:	b8 00 00 00 00       	mov    $0x0,%eax
  401f21:	e8 5e fd ff ff       	callq  401c84 <check_fail>
  401f26:	8b 15 ec 35 20 00    	mov    0x2035ec(%rip),%edx        # 605518 <check_level>
  401f2c:	39 d7                	cmp    %edx,%edi
  401f2e:	74 20                	je     401f50 <validate+0x52>
  401f30:	89 f9                	mov    %edi,%ecx
  401f32:	be e0 35 40 00       	mov    $0x4035e0,%esi
  401f37:	bf 01 00 00 00       	mov    $0x1,%edi
  401f3c:	b8 00 00 00 00       	mov    $0x0,%eax
  401f41:	e8 da ee ff ff       	callq  400e20 <__printf_chk@plt>
  401f46:	b8 00 00 00 00       	mov    $0x0,%eax
  401f4b:	e8 34 fd ff ff       	callq  401c84 <check_fail>
  401f50:	0f be 15 f1 41 20 00 	movsbl 0x2041f1(%rip),%edx        # 606148 <target_prefix>
  401f57:	41 b8 40 55 60 00    	mov    $0x605540,%r8d
  401f5d:	89 f9                	mov    %edi,%ecx
  401f5f:	be c0 34 40 00       	mov    $0x4034c0,%esi
  401f64:	bf 01 00 00 00       	mov    $0x1,%edi
  401f69:	b8 00 00 00 00       	mov    $0x0,%eax
  401f6e:	e8 ad ee ff ff       	callq  400e20 <__printf_chk@plt>
  401f73:	eb 49                	jmp    401fbe <validate+0xc0>
  401f75:	3b 3d a1 35 20 00    	cmp    0x2035a1(%rip),%edi        # 60551c <vlevel>
  401f7b:	74 18                	je     401f95 <validate+0x97>
  401f7d:	bf a2 34 40 00       	mov    $0x4034a2,%edi
  401f82:	e8 59 ed ff ff       	callq  400ce0 <puts@plt>
  401f87:	89 de                	mov    %ebx,%esi
  401f89:	bf 00 00 00 00       	mov    $0x0,%edi
  401f8e:	e8 78 fd ff ff       	callq  401d0b <notify_server>
  401f93:	eb 29                	jmp    401fbe <validate+0xc0>
  401f95:	0f be 0d ac 41 20 00 	movsbl 0x2041ac(%rip),%ecx        # 606148 <target_prefix>
  401f9c:	89 fa                	mov    %edi,%edx
  401f9e:	be 08 36 40 00       	mov    $0x403608,%esi
  401fa3:	bf 01 00 00 00       	mov    $0x1,%edi
  401fa8:	b8 00 00 00 00       	mov    $0x0,%eax
  401fad:	e8 6e ee ff ff       	callq  400e20 <__printf_chk@plt>
  401fb2:	89 de                	mov    %ebx,%esi
  401fb4:	bf 01 00 00 00       	mov    $0x1,%edi
  401fb9:	e8 4d fd ff ff       	callq  401d0b <notify_server>
  401fbe:	5b                   	pop    %rbx
  401fbf:	c3                   	retq   

0000000000401fc0 <fail>:
  401fc0:	48 83 ec 08          	sub    $0x8,%rsp
  401fc4:	83 3d 5d 35 20 00 00 	cmpl   $0x0,0x20355d(%rip)        # 605528 <is_checker>
  401fcb:	74 0a                	je     401fd7 <fail+0x17>
  401fcd:	b8 00 00 00 00       	mov    $0x0,%eax
  401fd2:	e8 ad fc ff ff       	callq  401c84 <check_fail>
  401fd7:	89 fe                	mov    %edi,%esi
  401fd9:	bf 00 00 00 00       	mov    $0x0,%edi
  401fde:	e8 28 fd ff ff       	callq  401d0b <notify_server>
  401fe3:	48 83 c4 08          	add    $0x8,%rsp
  401fe7:	c3                   	retq   

0000000000401fe8 <bushandler>:
  401fe8:	48 83 ec 08          	sub    $0x8,%rsp
  401fec:	83 3d 35 35 20 00 00 	cmpl   $0x0,0x203535(%rip)        # 605528 <is_checker>
  401ff3:	74 14                	je     402009 <bushandler+0x21>
  401ff5:	bf d5 34 40 00       	mov    $0x4034d5,%edi
  401ffa:	e8 e1 ec ff ff       	callq  400ce0 <puts@plt>
  401fff:	b8 00 00 00 00       	mov    $0x0,%eax
  402004:	e8 7b fc ff ff       	callq  401c84 <check_fail>
  402009:	bf 40 36 40 00       	mov    $0x403640,%edi
  40200e:	e8 cd ec ff ff       	callq  400ce0 <puts@plt>
  402013:	bf df 34 40 00       	mov    $0x4034df,%edi
  402018:	e8 c3 ec ff ff       	callq  400ce0 <puts@plt>
  40201d:	be 00 00 00 00       	mov    $0x0,%esi
  402022:	bf 00 00 00 00       	mov    $0x0,%edi
  402027:	e8 df fc ff ff       	callq  401d0b <notify_server>
  40202c:	bf 01 00 00 00       	mov    $0x1,%edi
  402031:	e8 3a ee ff ff       	callq  400e70 <exit@plt>

0000000000402036 <seghandler>:
  402036:	48 83 ec 08          	sub    $0x8,%rsp
  40203a:	83 3d e7 34 20 00 00 	cmpl   $0x0,0x2034e7(%rip)        # 605528 <is_checker>
  402041:	74 14                	je     402057 <seghandler+0x21>
  402043:	bf f5 34 40 00       	mov    $0x4034f5,%edi
  402048:	e8 93 ec ff ff       	callq  400ce0 <puts@plt>
  40204d:	b8 00 00 00 00       	mov    $0x0,%eax
  402052:	e8 2d fc ff ff       	callq  401c84 <check_fail>
  402057:	bf 60 36 40 00       	mov    $0x403660,%edi
  40205c:	e8 7f ec ff ff       	callq  400ce0 <puts@plt>
  402061:	bf df 34 40 00       	mov    $0x4034df,%edi
  402066:	e8 75 ec ff ff       	callq  400ce0 <puts@plt>
  40206b:	be 00 00 00 00       	mov    $0x0,%esi
  402070:	bf 00 00 00 00       	mov    $0x0,%edi
  402075:	e8 91 fc ff ff       	callq  401d0b <notify_server>
  40207a:	bf 01 00 00 00       	mov    $0x1,%edi
  40207f:	e8 ec ed ff ff       	callq  400e70 <exit@plt>

0000000000402084 <illegalhandler>:
  402084:	48 83 ec 08          	sub    $0x8,%rsp
  402088:	83 3d 99 34 20 00 00 	cmpl   $0x0,0x203499(%rip)        # 605528 <is_checker>
  40208f:	74 14                	je     4020a5 <illegalhandler+0x21>
  402091:	bf 08 35 40 00       	mov    $0x403508,%edi
  402096:	e8 45 ec ff ff       	callq  400ce0 <puts@plt>
  40209b:	b8 00 00 00 00       	mov    $0x0,%eax
  4020a0:	e8 df fb ff ff       	callq  401c84 <check_fail>
  4020a5:	bf 88 36 40 00       	mov    $0x403688,%edi
  4020aa:	e8 31 ec ff ff       	callq  400ce0 <puts@plt>
  4020af:	bf df 34 40 00       	mov    $0x4034df,%edi
  4020b4:	e8 27 ec ff ff       	callq  400ce0 <puts@plt>
  4020b9:	be 00 00 00 00       	mov    $0x0,%esi
  4020be:	bf 00 00 00 00       	mov    $0x0,%edi
  4020c3:	e8 43 fc ff ff       	callq  401d0b <notify_server>
  4020c8:	bf 01 00 00 00       	mov    $0x1,%edi
  4020cd:	e8 9e ed ff ff       	callq  400e70 <exit@plt>

00000000004020d2 <sigalrmhandler>:
  4020d2:	48 83 ec 08          	sub    $0x8,%rsp
  4020d6:	83 3d 4b 34 20 00 00 	cmpl   $0x0,0x20344b(%rip)        # 605528 <is_checker>
  4020dd:	74 14                	je     4020f3 <sigalrmhandler+0x21>
  4020df:	bf 1c 35 40 00       	mov    $0x40351c,%edi
  4020e4:	e8 f7 eb ff ff       	callq  400ce0 <puts@plt>
  4020e9:	b8 00 00 00 00       	mov    $0x0,%eax
  4020ee:	e8 91 fb ff ff       	callq  401c84 <check_fail>
  4020f3:	ba 05 00 00 00       	mov    $0x5,%edx
  4020f8:	be b8 36 40 00       	mov    $0x4036b8,%esi
  4020fd:	bf 01 00 00 00       	mov    $0x1,%edi
  402102:	b8 00 00 00 00       	mov    $0x0,%eax
  402107:	e8 14 ed ff ff       	callq  400e20 <__printf_chk@plt>
  40210c:	be 00 00 00 00       	mov    $0x0,%esi
  402111:	bf 00 00 00 00       	mov    $0x0,%edi
  402116:	e8 f0 fb ff ff       	callq  401d0b <notify_server>
  40211b:	bf 01 00 00 00       	mov    $0x1,%edi
  402120:	e8 4b ed ff ff       	callq  400e70 <exit@plt>

0000000000402125 <launch>:
  402125:	55                   	push   %rbp
  402126:	48 89 e5             	mov    %rsp,%rbp
  402129:	48 83 ec 10          	sub    $0x10,%rsp
  40212d:	48 89 fa             	mov    %rdi,%rdx
  402130:	64 48 8b 04 25 28 00 	mov    %fs:0x28,%rax
  402137:	00 00 
  402139:	48 89 45 f8          	mov    %rax,-0x8(%rbp)
  40213d:	31 c0                	xor    %eax,%eax
  40213f:	48 8d 47 1e          	lea    0x1e(%rdi),%rax
  402143:	48 83 e0 f0          	and    $0xfffffffffffffff0,%rax
  402147:	48 29 c4             	sub    %rax,%rsp
  40214a:	48 8d 7c 24 0f       	lea    0xf(%rsp),%rdi
  40214f:	48 83 e7 f0          	and    $0xfffffffffffffff0,%rdi
  402153:	be f4 00 00 00       	mov    $0xf4,%esi
  402158:	e8 c3 eb ff ff       	callq  400d20 <memset@plt>
  40215d:	48 8b 05 5c 33 20 00 	mov    0x20335c(%rip),%rax        # 6054c0 <stdin@@GLIBC_2.2.5>
  402164:	48 39 05 a5 33 20 00 	cmp    %rax,0x2033a5(%rip)        # 605510 <infile>
  40216b:	75 14                	jne    402181 <launch+0x5c>
  40216d:	be 24 35 40 00       	mov    $0x403524,%esi
  402172:	bf 01 00 00 00       	mov    $0x1,%edi
  402177:	b8 00 00 00 00       	mov    $0x0,%eax
  40217c:	e8 9f ec ff ff       	callq  400e20 <__printf_chk@plt>
  402181:	c7 05 91 33 20 00 00 	movl   $0x0,0x203391(%rip)        # 60551c <vlevel>
  402188:	00 00 00 
  40218b:	b8 00 00 00 00       	mov    $0x0,%eax
  402190:	e8 38 f9 ff ff       	callq  401acd <test>
  402195:	83 3d 8c 33 20 00 00 	cmpl   $0x0,0x20338c(%rip)        # 605528 <is_checker>
  40219c:	74 14                	je     4021b2 <launch+0x8d>
  40219e:	bf 31 35 40 00       	mov    $0x403531,%edi
  4021a3:	e8 38 eb ff ff       	callq  400ce0 <puts@plt>
  4021a8:	b8 00 00 00 00       	mov    $0x0,%eax
  4021ad:	e8 d2 fa ff ff       	callq  401c84 <check_fail>
  4021b2:	bf 3c 35 40 00       	mov    $0x40353c,%edi
  4021b7:	e8 24 eb ff ff       	callq  400ce0 <puts@plt>
  4021bc:	48 8b 45 f8          	mov    -0x8(%rbp),%rax
  4021c0:	64 48 33 04 25 28 00 	xor    %fs:0x28,%rax
  4021c7:	00 00 
  4021c9:	74 05                	je     4021d0 <launch+0xab>
  4021cb:	e8 30 eb ff ff       	callq  400d00 <__stack_chk_fail@plt>
  4021d0:	c9                   	leaveq 
  4021d1:	c3                   	retq   

00000000004021d2 <stable_launch>:
  4021d2:	53                   	push   %rbx
  4021d3:	48 89 3d 2e 33 20 00 	mov    %rdi,0x20332e(%rip)        # 605508 <global_offset>
  4021da:	41 b9 00 00 00 00    	mov    $0x0,%r9d
  4021e0:	41 b8 00 00 00 00    	mov    $0x0,%r8d
  4021e6:	b9 32 01 00 00       	mov    $0x132,%ecx
  4021eb:	ba 07 00 00 00       	mov    $0x7,%edx
  4021f0:	be 00 00 10 00       	mov    $0x100000,%esi
  4021f5:	bf 00 60 58 55       	mov    $0x55586000,%edi
  4021fa:	e8 11 eb ff ff       	callq  400d10 <mmap@plt>
  4021ff:	48 89 c3             	mov    %rax,%rbx
  402202:	48 3d 00 60 58 55    	cmp    $0x55586000,%rax
  402208:	74 37                	je     402241 <stable_launch+0x6f>
  40220a:	be 00 00 10 00       	mov    $0x100000,%esi
  40220f:	48 89 c7             	mov    %rax,%rdi
  402212:	e8 f9 eb ff ff       	callq  400e10 <munmap@plt>
  402217:	b9 00 60 58 55       	mov    $0x55586000,%ecx
  40221c:	ba f0 36 40 00       	mov    $0x4036f0,%edx
  402221:	be 01 00 00 00       	mov    $0x1,%esi
  402226:	48 8b 3d bb 32 20 00 	mov    0x2032bb(%rip),%rdi        # 6054e8 <stderr@@GLIBC_2.2.5>
  40222d:	b8 00 00 00 00       	mov    $0x0,%eax
  402232:	e8 59 ec ff ff       	callq  400e90 <__fprintf_chk@plt>
  402237:	bf 01 00 00 00       	mov    $0x1,%edi
  40223c:	e8 2f ec ff ff       	callq  400e70 <exit@plt>
  402241:	48 8d 90 f8 ff 0f 00 	lea    0xffff8(%rax),%rdx
  402248:	48 89 15 01 3f 20 00 	mov    %rdx,0x203f01(%rip)        # 606150 <stack_top>
  40224f:	48 89 e0             	mov    %rsp,%rax
  402252:	48 89 d4             	mov    %rdx,%rsp
  402255:	48 89 c2             	mov    %rax,%rdx
  402258:	48 89 15 a1 32 20 00 	mov    %rdx,0x2032a1(%rip)        # 605500 <global_save_stack>
  40225f:	48 8b 3d a2 32 20 00 	mov    0x2032a2(%rip),%rdi        # 605508 <global_offset>
  402266:	e8 ba fe ff ff       	callq  402125 <launch>
  40226b:	48 8b 05 8e 32 20 00 	mov    0x20328e(%rip),%rax        # 605500 <global_save_stack>
  402272:	48 89 c4             	mov    %rax,%rsp
  402275:	be 00 00 10 00       	mov    $0x100000,%esi
  40227a:	48 89 df             	mov    %rbx,%rdi
  40227d:	e8 8e eb ff ff       	callq  400e10 <munmap@plt>
  402282:	5b                   	pop    %rbx
  402283:	c3                   	retq   

0000000000402284 <rio_readinitb>:
  402284:	89 37                	mov    %esi,(%rdi)
  402286:	c7 47 04 00 00 00 00 	movl   $0x0,0x4(%rdi)
  40228d:	48 8d 47 10          	lea    0x10(%rdi),%rax
  402291:	48 89 47 08          	mov    %rax,0x8(%rdi)
  402295:	c3                   	retq   

0000000000402296 <sigalrm_handler>:
  402296:	48 83 ec 08          	sub    $0x8,%rsp
  40229a:	b9 00 00 00 00       	mov    $0x0,%ecx
  40229f:	ba 30 37 40 00       	mov    $0x403730,%edx
  4022a4:	be 01 00 00 00       	mov    $0x1,%esi
  4022a9:	48 8b 3d 38 32 20 00 	mov    0x203238(%rip),%rdi        # 6054e8 <stderr@@GLIBC_2.2.5>
  4022b0:	b8 00 00 00 00       	mov    $0x0,%eax
  4022b5:	e8 d6 eb ff ff       	callq  400e90 <__fprintf_chk@plt>
  4022ba:	bf 01 00 00 00       	mov    $0x1,%edi
  4022bf:	e8 ac eb ff ff       	callq  400e70 <exit@plt>

00000000004022c4 <rio_writen>:
  4022c4:	41 55                	push   %r13
  4022c6:	41 54                	push   %r12
  4022c8:	55                   	push   %rbp
  4022c9:	53                   	push   %rbx
  4022ca:	48 83 ec 08          	sub    $0x8,%rsp
  4022ce:	41 89 fc             	mov    %edi,%r12d
  4022d1:	48 89 f5             	mov    %rsi,%rbp
  4022d4:	49 89 d5             	mov    %rdx,%r13
  4022d7:	48 89 d3             	mov    %rdx,%rbx
  4022da:	eb 28                	jmp    402304 <rio_writen+0x40>
  4022dc:	48 89 da             	mov    %rbx,%rdx
  4022df:	48 89 ee             	mov    %rbp,%rsi
  4022e2:	44 89 e7             	mov    %r12d,%edi
  4022e5:	e8 06 ea ff ff       	callq  400cf0 <write@plt>
  4022ea:	48 85 c0             	test   %rax,%rax
  4022ed:	7f 0f                	jg     4022fe <rio_writen+0x3a>
  4022ef:	e8 ac e9 ff ff       	callq  400ca0 <__errno_location@plt>
  4022f4:	83 38 04             	cmpl   $0x4,(%rax)
  4022f7:	75 15                	jne    40230e <rio_writen+0x4a>
  4022f9:	b8 00 00 00 00       	mov    $0x0,%eax
  4022fe:	48 29 c3             	sub    %rax,%rbx
  402301:	48 01 c5             	add    %rax,%rbp
  402304:	48 85 db             	test   %rbx,%rbx
  402307:	75 d3                	jne    4022dc <rio_writen+0x18>
  402309:	4c 89 e8             	mov    %r13,%rax
  40230c:	eb 07                	jmp    402315 <rio_writen+0x51>
  40230e:	48 c7 c0 ff ff ff ff 	mov    $0xffffffffffffffff,%rax
  402315:	48 83 c4 08          	add    $0x8,%rsp
  402319:	5b                   	pop    %rbx
  40231a:	5d                   	pop    %rbp
  40231b:	41 5c                	pop    %r12
  40231d:	41 5d                	pop    %r13
  40231f:	c3                   	retq   

0000000000402320 <rio_read>:
  402320:	41 55                	push   %r13
  402322:	41 54                	push   %r12
  402324:	55                   	push   %rbp
  402325:	53                   	push   %rbx
  402326:	48 83 ec 08          	sub    $0x8,%rsp
  40232a:	48 89 fb             	mov    %rdi,%rbx
  40232d:	49 89 f5             	mov    %rsi,%r13
  402330:	49 89 d4             	mov    %rdx,%r12
  402333:	eb 2e                	jmp    402363 <rio_read+0x43>
  402335:	48 8d 6b 10          	lea    0x10(%rbx),%rbp
  402339:	8b 3b                	mov    (%rbx),%edi
  40233b:	ba 00 20 00 00       	mov    $0x2000,%edx
  402340:	48 89 ee             	mov    %rbp,%rsi
  402343:	e8 08 ea ff ff       	callq  400d50 <read@plt>
  402348:	89 43 04             	mov    %eax,0x4(%rbx)
  40234b:	85 c0                	test   %eax,%eax
  40234d:	79 0c                	jns    40235b <rio_read+0x3b>
  40234f:	e8 4c e9 ff ff       	callq  400ca0 <__errno_location@plt>
  402354:	83 38 04             	cmpl   $0x4,(%rax)
  402357:	74 0a                	je     402363 <rio_read+0x43>
  402359:	eb 37                	jmp    402392 <rio_read+0x72>
  40235b:	85 c0                	test   %eax,%eax
  40235d:	74 3c                	je     40239b <rio_read+0x7b>
  40235f:	48 89 6b 08          	mov    %rbp,0x8(%rbx)
  402363:	8b 6b 04             	mov    0x4(%rbx),%ebp
  402366:	85 ed                	test   %ebp,%ebp
  402368:	7e cb                	jle    402335 <rio_read+0x15>
  40236a:	89 e8                	mov    %ebp,%eax
  40236c:	49 39 c4             	cmp    %rax,%r12
  40236f:	77 03                	ja     402374 <rio_read+0x54>
  402371:	44 89 e5             	mov    %r12d,%ebp
  402374:	4c 63 e5             	movslq %ebp,%r12
  402377:	48 8b 73 08          	mov    0x8(%rbx),%rsi
  40237b:	4c 89 e2             	mov    %r12,%rdx
  40237e:	4c 89 ef             	mov    %r13,%rdi
  402381:	e8 3a ea ff ff       	callq  400dc0 <memcpy@plt>
  402386:	4c 01 63 08          	add    %r12,0x8(%rbx)
  40238a:	29 6b 04             	sub    %ebp,0x4(%rbx)
  40238d:	4c 89 e0             	mov    %r12,%rax
  402390:	eb 0e                	jmp    4023a0 <rio_read+0x80>
  402392:	48 c7 c0 ff ff ff ff 	mov    $0xffffffffffffffff,%rax
  402399:	eb 05                	jmp    4023a0 <rio_read+0x80>
  40239b:	b8 00 00 00 00       	mov    $0x0,%eax
  4023a0:	48 83 c4 08          	add    $0x8,%rsp
  4023a4:	5b                   	pop    %rbx
  4023a5:	5d                   	pop    %rbp
  4023a6:	41 5c                	pop    %r12
  4023a8:	41 5d                	pop    %r13
  4023aa:	c3                   	retq   

00000000004023ab <rio_readlineb>:
  4023ab:	41 55                	push   %r13
  4023ad:	41 54                	push   %r12
  4023af:	55                   	push   %rbp
  4023b0:	53                   	push   %rbx
  4023b1:	48 83 ec 18          	sub    $0x18,%rsp
  4023b5:	49 89 fd             	mov    %rdi,%r13
  4023b8:	48 89 f5             	mov    %rsi,%rbp
  4023bb:	49 89 d4             	mov    %rdx,%r12
  4023be:	bb 01 00 00 00       	mov    $0x1,%ebx
  4023c3:	eb 3f                	jmp    402404 <rio_readlineb+0x59>
  4023c5:	ba 01 00 00 00       	mov    $0x1,%edx
  4023ca:	48 8d 74 24 0f       	lea    0xf(%rsp),%rsi
  4023cf:	4c 89 ef             	mov    %r13,%rdi
  4023d2:	e8 49 ff ff ff       	callq  402320 <rio_read>
  4023d7:	83 f8 01             	cmp    $0x1,%eax
  4023da:	75 15                	jne    4023f1 <rio_readlineb+0x46>
  4023dc:	48 8d 45 01          	lea    0x1(%rbp),%rax
  4023e0:	0f b6 54 24 0f       	movzbl 0xf(%rsp),%edx
  4023e5:	88 55 00             	mov    %dl,0x0(%rbp)
  4023e8:	80 7c 24 0f 0a       	cmpb   $0xa,0xf(%rsp)
  4023ed:	75 0e                	jne    4023fd <rio_readlineb+0x52>
  4023ef:	eb 1a                	jmp    40240b <rio_readlineb+0x60>
  4023f1:	85 c0                	test   %eax,%eax
  4023f3:	75 22                	jne    402417 <rio_readlineb+0x6c>
  4023f5:	48 83 fb 01          	cmp    $0x1,%rbx
  4023f9:	75 13                	jne    40240e <rio_readlineb+0x63>
  4023fb:	eb 23                	jmp    402420 <rio_readlineb+0x75>
  4023fd:	48 83 c3 01          	add    $0x1,%rbx
  402401:	48 89 c5             	mov    %rax,%rbp
  402404:	4c 39 e3             	cmp    %r12,%rbx
  402407:	72 bc                	jb     4023c5 <rio_readlineb+0x1a>
  402409:	eb 03                	jmp    40240e <rio_readlineb+0x63>
  40240b:	48 89 c5             	mov    %rax,%rbp
  40240e:	c6 45 00 00          	movb   $0x0,0x0(%rbp)
  402412:	48 89 d8             	mov    %rbx,%rax
  402415:	eb 0e                	jmp    402425 <rio_readlineb+0x7a>
  402417:	48 c7 c0 ff ff ff ff 	mov    $0xffffffffffffffff,%rax
  40241e:	eb 05                	jmp    402425 <rio_readlineb+0x7a>
  402420:	b8 00 00 00 00       	mov    $0x0,%eax
  402425:	48 83 c4 18          	add    $0x18,%rsp
  402429:	5b                   	pop    %rbx
  40242a:	5d                   	pop    %rbp
  40242b:	41 5c                	pop    %r12
  40242d:	41 5d                	pop    %r13
  40242f:	c3                   	retq   

0000000000402430 <urlencode>:
  402430:	41 54                	push   %r12
  402432:	55                   	push   %rbp
  402433:	53                   	push   %rbx
  402434:	48 83 ec 10          	sub    $0x10,%rsp
  402438:	48 89 fb             	mov    %rdi,%rbx
  40243b:	48 89 f5             	mov    %rsi,%rbp
  40243e:	64 48 8b 04 25 28 00 	mov    %fs:0x28,%rax
  402445:	00 00 
  402447:	48 89 44 24 08       	mov    %rax,0x8(%rsp)
  40244c:	31 c0                	xor    %eax,%eax
  40244e:	48 c7 c1 ff ff ff ff 	mov    $0xffffffffffffffff,%rcx
  402455:	f2 ae                	repnz scas %es:(%rdi),%al
  402457:	48 f7 d1             	not    %rcx
  40245a:	8d 41 ff             	lea    -0x1(%rcx),%eax
  40245d:	e9 aa 00 00 00       	jmpq   40250c <urlencode+0xdc>
  402462:	44 0f b6 03          	movzbl (%rbx),%r8d
  402466:	41 80 f8 2a          	cmp    $0x2a,%r8b
  40246a:	0f 94 c2             	sete   %dl
  40246d:	41 80 f8 2d          	cmp    $0x2d,%r8b
  402471:	0f 94 c0             	sete   %al
  402474:	08 c2                	or     %al,%dl
  402476:	75 24                	jne    40249c <urlencode+0x6c>
  402478:	41 80 f8 2e          	cmp    $0x2e,%r8b
  40247c:	74 1e                	je     40249c <urlencode+0x6c>
  40247e:	41 80 f8 5f          	cmp    $0x5f,%r8b
  402482:	74 18                	je     40249c <urlencode+0x6c>
  402484:	41 8d 40 d0          	lea    -0x30(%r8),%eax
  402488:	3c 09                	cmp    $0x9,%al
  40248a:	76 10                	jbe    40249c <urlencode+0x6c>
  40248c:	41 8d 40 bf          	lea    -0x41(%r8),%eax
  402490:	3c 19                	cmp    $0x19,%al
  402492:	76 08                	jbe    40249c <urlencode+0x6c>
  402494:	41 8d 40 9f          	lea    -0x61(%r8),%eax
  402498:	3c 19                	cmp    $0x19,%al
  40249a:	77 0a                	ja     4024a6 <urlencode+0x76>
  40249c:	44 88 45 00          	mov    %r8b,0x0(%rbp)
  4024a0:	48 8d 6d 01          	lea    0x1(%rbp),%rbp
  4024a4:	eb 5f                	jmp    402505 <urlencode+0xd5>
  4024a6:	41 80 f8 20          	cmp    $0x20,%r8b
  4024aa:	75 0a                	jne    4024b6 <urlencode+0x86>
  4024ac:	c6 45 00 2b          	movb   $0x2b,0x0(%rbp)
  4024b0:	48 8d 6d 01          	lea    0x1(%rbp),%rbp
  4024b4:	eb 4f                	jmp    402505 <urlencode+0xd5>
  4024b6:	41 8d 40 e0          	lea    -0x20(%r8),%eax
  4024ba:	3c 5f                	cmp    $0x5f,%al
  4024bc:	0f 96 c2             	setbe  %dl
  4024bf:	41 80 f8 09          	cmp    $0x9,%r8b
  4024c3:	0f 94 c0             	sete   %al
  4024c6:	08 c2                	or     %al,%dl
  4024c8:	74 50                	je     40251a <urlencode+0xea>
  4024ca:	45 0f b6 c0          	movzbl %r8b,%r8d
  4024ce:	b9 c8 37 40 00       	mov    $0x4037c8,%ecx
  4024d3:	ba 08 00 00 00       	mov    $0x8,%edx
  4024d8:	be 01 00 00 00       	mov    $0x1,%esi
  4024dd:	48 89 e7             	mov    %rsp,%rdi
  4024e0:	b8 00 00 00 00       	mov    $0x0,%eax
  4024e5:	e8 b6 e9 ff ff       	callq  400ea0 <__sprintf_chk@plt>
  4024ea:	0f b6 04 24          	movzbl (%rsp),%eax
  4024ee:	88 45 00             	mov    %al,0x0(%rbp)
  4024f1:	0f b6 44 24 01       	movzbl 0x1(%rsp),%eax
  4024f6:	88 45 01             	mov    %al,0x1(%rbp)
  4024f9:	0f b6 44 24 02       	movzbl 0x2(%rsp),%eax
  4024fe:	88 45 02             	mov    %al,0x2(%rbp)
  402501:	48 8d 6d 03          	lea    0x3(%rbp),%rbp
  402505:	48 83 c3 01          	add    $0x1,%rbx
  402509:	44 89 e0             	mov    %r12d,%eax
  40250c:	44 8d 60 ff          	lea    -0x1(%rax),%r12d
  402510:	85 c0                	test   %eax,%eax
  402512:	0f 85 4a ff ff ff    	jne    402462 <urlencode+0x32>
  402518:	eb 05                	jmp    40251f <urlencode+0xef>
  40251a:	b8 ff ff ff ff       	mov    $0xffffffff,%eax
  40251f:	48 8b 74 24 08       	mov    0x8(%rsp),%rsi
  402524:	64 48 33 34 25 28 00 	xor    %fs:0x28,%rsi
  40252b:	00 00 
  40252d:	74 05                	je     402534 <urlencode+0x104>
  40252f:	e8 cc e7 ff ff       	callq  400d00 <__stack_chk_fail@plt>
  402534:	48 83 c4 10          	add    $0x10,%rsp
  402538:	5b                   	pop    %rbx
  402539:	5d                   	pop    %rbp
  40253a:	41 5c                	pop    %r12
  40253c:	c3                   	retq   

000000000040253d <submitr>:
  40253d:	41 57                	push   %r15
  40253f:	41 56                	push   %r14
  402541:	41 55                	push   %r13
  402543:	41 54                	push   %r12
  402545:	55                   	push   %rbp
  402546:	53                   	push   %rbx
  402547:	48 81 ec 58 a0 00 00 	sub    $0xa058,%rsp
  40254e:	49 89 fc             	mov    %rdi,%r12
  402551:	89 74 24 04          	mov    %esi,0x4(%rsp)
  402555:	49 89 d7             	mov    %rdx,%r15
  402558:	49 89 ce             	mov    %rcx,%r14
  40255b:	4c 89 44 24 08       	mov    %r8,0x8(%rsp)
  402560:	4d 89 cd             	mov    %r9,%r13
  402563:	48 8b 9c 24 90 a0 00 	mov    0xa090(%rsp),%rbx
  40256a:	00 
  40256b:	64 48 8b 04 25 28 00 	mov    %fs:0x28,%rax
  402572:	00 00 
  402574:	48 89 84 24 48 a0 00 	mov    %rax,0xa048(%rsp)
  40257b:	00 
  40257c:	31 c0                	xor    %eax,%eax
  40257e:	c7 44 24 1c 00 00 00 	movl   $0x0,0x1c(%rsp)
  402585:	00 
  402586:	ba 00 00 00 00       	mov    $0x0,%edx
  40258b:	be 01 00 00 00       	mov    $0x1,%esi
  402590:	bf 02 00 00 00       	mov    $0x2,%edi
  402595:	e8 16 e9 ff ff       	callq  400eb0 <socket@plt>
  40259a:	85 c0                	test   %eax,%eax
  40259c:	79 4e                	jns    4025ec <submitr+0xaf>
  40259e:	48 b8 45 72 72 6f 72 	movabs $0x43203a726f727245,%rax
  4025a5:	3a 20 43 
  4025a8:	48 89 03             	mov    %rax,(%rbx)
  4025ab:	48 b8 6c 69 65 6e 74 	movabs $0x6e7520746e65696c,%rax
  4025b2:	20 75 6e 
  4025b5:	48 89 43 08          	mov    %rax,0x8(%rbx)
  4025b9:	48 b8 61 62 6c 65 20 	movabs $0x206f7420656c6261,%rax
  4025c0:	74 6f 20 
  4025c3:	48 89 43 10          	mov    %rax,0x10(%rbx)
  4025c7:	48 b8 63 72 65 61 74 	movabs $0x7320657461657263,%rax
  4025ce:	65 20 73 
  4025d1:	48 89 43 18          	mov    %rax,0x18(%rbx)
  4025d5:	c7 43 20 6f 63 6b 65 	movl   $0x656b636f,0x20(%rbx)
  4025dc:	66 c7 43 24 74 00    	movw   $0x74,0x24(%rbx)
  4025e2:	b8 ff ff ff ff       	mov    $0xffffffff,%eax
  4025e7:	e9 88 06 00 00       	jmpq   402c74 <submitr+0x737>
  4025ec:	89 c5                	mov    %eax,%ebp
  4025ee:	4c 89 e7             	mov    %r12,%rdi
  4025f1:	e8 8a e7 ff ff       	callq  400d80 <gethostbyname@plt>
  4025f6:	48 85 c0             	test   %rax,%rax
  4025f9:	75 67                	jne    402662 <submitr+0x125>
  4025fb:	48 b8 45 72 72 6f 72 	movabs $0x44203a726f727245,%rax
  402602:	3a 20 44 
  402605:	48 89 03             	mov    %rax,(%rbx)
  402608:	48 b8 4e 53 20 69 73 	movabs $0x6e7520736920534e,%rax
  40260f:	20 75 6e 
  402612:	48 89 43 08          	mov    %rax,0x8(%rbx)
  402616:	48 b8 61 62 6c 65 20 	movabs $0x206f7420656c6261,%rax
  40261d:	74 6f 20 
  402620:	48 89 43 10          	mov    %rax,0x10(%rbx)
  402624:	48 b8 72 65 73 6f 6c 	movabs $0x2065766c6f736572,%rax
  40262b:	76 65 20 
  40262e:	48 89 43 18          	mov    %rax,0x18(%rbx)
  402632:	48 b8 73 65 72 76 65 	movabs $0x6120726576726573,%rax
  402639:	72 20 61 
  40263c:	48 89 43 20          	mov    %rax,0x20(%rbx)
  402640:	c7 43 28 64 64 72 65 	movl   $0x65726464,0x28(%rbx)
  402647:	66 c7 43 2c 73 73    	movw   $0x7373,0x2c(%rbx)
  40264d:	c6 43 2e 00          	movb   $0x0,0x2e(%rbx)
  402651:	89 ef                	mov    %ebp,%edi
  402653:	e8 e8 e6 ff ff       	callq  400d40 <close@plt>
  402658:	b8 ff ff ff ff       	mov    $0xffffffff,%eax
  40265d:	e9 12 06 00 00       	jmpq   402c74 <submitr+0x737>
  402662:	48 c7 44 24 20 00 00 	movq   $0x0,0x20(%rsp)
  402669:	00 00 
  40266b:	48 c7 44 24 28 00 00 	movq   $0x0,0x28(%rsp)
  402672:	00 00 
  402674:	66 c7 44 24 20 02 00 	movw   $0x2,0x20(%rsp)
  40267b:	48 63 50 14          	movslq 0x14(%rax),%rdx
  40267f:	48 8b 40 18          	mov    0x18(%rax),%rax
  402683:	48 8b 30             	mov    (%rax),%rsi
  402686:	48 8d 7c 24 24       	lea    0x24(%rsp),%rdi
  40268b:	b9 0c 00 00 00       	mov    $0xc,%ecx
  402690:	e8 fb e6 ff ff       	callq  400d90 <__memmove_chk@plt>
  402695:	0f b7 44 24 04       	movzwl 0x4(%rsp),%eax
  40269a:	66 c1 c8 08          	ror    $0x8,%ax
  40269e:	66 89 44 24 22       	mov    %ax,0x22(%rsp)
  4026a3:	ba 10 00 00 00       	mov    $0x10,%edx
  4026a8:	48 8d 74 24 20       	lea    0x20(%rsp),%rsi
  4026ad:	89 ef                	mov    %ebp,%edi
  4026af:	e8 cc e7 ff ff       	callq  400e80 <connect@plt>
  4026b4:	85 c0                	test   %eax,%eax
  4026b6:	79 59                	jns    402711 <submitr+0x1d4>
  4026b8:	48 b8 45 72 72 6f 72 	movabs $0x55203a726f727245,%rax
  4026bf:	3a 20 55 
  4026c2:	48 89 03             	mov    %rax,(%rbx)
  4026c5:	48 b8 6e 61 62 6c 65 	movabs $0x6f7420656c62616e,%rax
  4026cc:	20 74 6f 
  4026cf:	48 89 43 08          	mov    %rax,0x8(%rbx)
  4026d3:	48 b8 20 63 6f 6e 6e 	movabs $0x7463656e6e6f6320,%rax
  4026da:	65 63 74 
  4026dd:	48 89 43 10          	mov    %rax,0x10(%rbx)
  4026e1:	48 b8 20 74 6f 20 74 	movabs $0x20656874206f7420,%rax
  4026e8:	68 65 20 
  4026eb:	48 89 43 18          	mov    %rax,0x18(%rbx)
  4026ef:	c7 43 20 73 65 72 76 	movl   $0x76726573,0x20(%rbx)
  4026f6:	66 c7 43 24 65 72    	movw   $0x7265,0x24(%rbx)
  4026fc:	c6 43 26 00          	movb   $0x0,0x26(%rbx)
  402700:	89 ef                	mov    %ebp,%edi
  402702:	e8 39 e6 ff ff       	callq  400d40 <close@plt>
  402707:	b8 ff ff ff ff       	mov    $0xffffffff,%eax
  40270c:	e9 63 05 00 00       	jmpq   402c74 <submitr+0x737>
  402711:	48 c7 c6 ff ff ff ff 	mov    $0xffffffffffffffff,%rsi
  402718:	b8 00 00 00 00       	mov    $0x0,%eax
  40271d:	48 89 f1             	mov    %rsi,%rcx
  402720:	4c 89 ef             	mov    %r13,%rdi
  402723:	f2 ae                	repnz scas %es:(%rdi),%al
  402725:	48 f7 d1             	not    %rcx
  402728:	48 89 ca             	mov    %rcx,%rdx
  40272b:	48 89 f1             	mov    %rsi,%rcx
  40272e:	4c 89 ff             	mov    %r15,%rdi
  402731:	f2 ae                	repnz scas %es:(%rdi),%al
  402733:	48 f7 d1             	not    %rcx
  402736:	49 89 c8             	mov    %rcx,%r8
  402739:	48 89 f1             	mov    %rsi,%rcx
  40273c:	4c 89 f7             	mov    %r14,%rdi
  40273f:	f2 ae                	repnz scas %es:(%rdi),%al
  402741:	48 f7 d1             	not    %rcx
  402744:	4d 8d 44 08 fe       	lea    -0x2(%r8,%rcx,1),%r8
  402749:	48 89 f1             	mov    %rsi,%rcx
  40274c:	48 8b 7c 24 08       	mov    0x8(%rsp),%rdi
  402751:	f2 ae                	repnz scas %es:(%rdi),%al
  402753:	48 89 c8             	mov    %rcx,%rax
  402756:	48 f7 d0             	not    %rax
  402759:	49 8d 4c 00 ff       	lea    -0x1(%r8,%rax,1),%rcx
  40275e:	48 8d 44 52 fd       	lea    -0x3(%rdx,%rdx,2),%rax
  402763:	48 8d 84 01 80 00 00 	lea    0x80(%rcx,%rax,1),%rax
  40276a:	00 
  40276b:	48 3d 00 20 00 00    	cmp    $0x2000,%rax
  402771:	76 72                	jbe    4027e5 <submitr+0x2a8>
  402773:	48 b8 45 72 72 6f 72 	movabs $0x52203a726f727245,%rax
  40277a:	3a 20 52 
  40277d:	48 89 03             	mov    %rax,(%rbx)
  402780:	48 b8 65 73 75 6c 74 	movabs $0x747320746c757365,%rax
  402787:	20 73 74 
  40278a:	48 89 43 08          	mov    %rax,0x8(%rbx)
  40278e:	48 b8 72 69 6e 67 20 	movabs $0x6f6f7420676e6972,%rax
  402795:	74 6f 6f 
  402798:	48 89 43 10          	mov    %rax,0x10(%rbx)
  40279c:	48 b8 20 6c 61 72 67 	movabs $0x202e656772616c20,%rax
  4027a3:	65 2e 20 
  4027a6:	48 89 43 18          	mov    %rax,0x18(%rbx)
  4027aa:	48 b8 49 6e 63 72 65 	movabs $0x6573616572636e49,%rax
  4027b1:	61 73 65 
  4027b4:	48 89 43 20          	mov    %rax,0x20(%rbx)
  4027b8:	48 b8 20 53 55 42 4d 	movabs $0x5254494d42555320,%rax
  4027bf:	49 54 52 
  4027c2:	48 89 43 28          	mov    %rax,0x28(%rbx)
  4027c6:	48 b8 5f 4d 41 58 42 	movabs $0x46554258414d5f,%rax
  4027cd:	55 46 00 
  4027d0:	48 89 43 30          	mov    %rax,0x30(%rbx)
  4027d4:	89 ef                	mov    %ebp,%edi
  4027d6:	e8 65 e5 ff ff       	callq  400d40 <close@plt>
  4027db:	b8 ff ff ff ff       	mov    $0xffffffff,%eax
  4027e0:	e9 8f 04 00 00       	jmpq   402c74 <submitr+0x737>
  4027e5:	48 8d b4 24 30 20 00 	lea    0x2030(%rsp),%rsi
  4027ec:	00 
  4027ed:	b9 00 04 00 00       	mov    $0x400,%ecx
  4027f2:	b8 00 00 00 00       	mov    $0x0,%eax
  4027f7:	48 89 f7             	mov    %rsi,%rdi
  4027fa:	f3 48 ab             	rep stos %rax,%es:(%rdi)
  4027fd:	4c 89 ef             	mov    %r13,%rdi
  402800:	e8 2b fc ff ff       	callq  402430 <urlencode>
  402805:	85 c0                	test   %eax,%eax
  402807:	0f 89 8a 00 00 00    	jns    402897 <submitr+0x35a>
  40280d:	48 b8 45 72 72 6f 72 	movabs $0x52203a726f727245,%rax
  402814:	3a 20 52 
  402817:	48 89 03             	mov    %rax,(%rbx)
  40281a:	48 b8 65 73 75 6c 74 	movabs $0x747320746c757365,%rax
  402821:	20 73 74 
  402824:	48 89 43 08          	mov    %rax,0x8(%rbx)
  402828:	48 b8 72 69 6e 67 20 	movabs $0x6e6f6320676e6972,%rax
  40282f:	63 6f 6e 
  402832:	48 89 43 10          	mov    %rax,0x10(%rbx)
  402836:	48 b8 74 61 69 6e 73 	movabs $0x6e6120736e696174,%rax
  40283d:	20 61 6e 
  402840:	48 89 43 18          	mov    %rax,0x18(%rbx)
  402844:	48 b8 20 69 6c 6c 65 	movabs $0x6c6167656c6c6920,%rax
  40284b:	67 61 6c 
  40284e:	48 89 43 20          	mov    %rax,0x20(%rbx)
  402852:	48 b8 20 6f 72 20 75 	movabs $0x72706e7520726f20,%rax
  402859:	6e 70 72 
  40285c:	48 89 43 28          	mov    %rax,0x28(%rbx)
  402860:	48 b8 69 6e 74 61 62 	movabs $0x20656c6261746e69,%rax
  402867:	6c 65 20 
  40286a:	48 89 43 30          	mov    %rax,0x30(%rbx)
  40286e:	48 b8 63 68 61 72 61 	movabs $0x6574636172616863,%rax
  402875:	63 74 65 
  402878:	48 89 43 38          	mov    %rax,0x38(%rbx)
  40287c:	66 c7 43 40 72 2e    	movw   $0x2e72,0x40(%rbx)
  402882:	c6 43 42 00          	movb   $0x0,0x42(%rbx)
  402886:	89 ef                	mov    %ebp,%edi
  402888:	e8 b3 e4 ff ff       	callq  400d40 <close@plt>
  40288d:	b8 ff ff ff ff       	mov    $0xffffffff,%eax
  402892:	e9 dd 03 00 00       	jmpq   402c74 <submitr+0x737>
  402897:	4c 8d 6c 24 30       	lea    0x30(%rsp),%r13
  40289c:	41 54                	push   %r12
  40289e:	48 8d 84 24 38 20 00 	lea    0x2038(%rsp),%rax
  4028a5:	00 
  4028a6:	50                   	push   %rax
  4028a7:	4d 89 f9             	mov    %r15,%r9
  4028aa:	4d 89 f0             	mov    %r14,%r8
  4028ad:	b9 58 37 40 00       	mov    $0x403758,%ecx
  4028b2:	ba 00 20 00 00       	mov    $0x2000,%edx
  4028b7:	be 01 00 00 00       	mov    $0x1,%esi
  4028bc:	4c 89 ef             	mov    %r13,%rdi
  4028bf:	b8 00 00 00 00       	mov    $0x0,%eax
  4028c4:	e8 d7 e5 ff ff       	callq  400ea0 <__sprintf_chk@plt>
  4028c9:	b8 00 00 00 00       	mov    $0x0,%eax
  4028ce:	48 c7 c1 ff ff ff ff 	mov    $0xffffffffffffffff,%rcx
  4028d5:	4c 89 ef             	mov    %r13,%rdi
  4028d8:	f2 ae                	repnz scas %es:(%rdi),%al
  4028da:	48 f7 d1             	not    %rcx
  4028dd:	48 8d 51 ff          	lea    -0x1(%rcx),%rdx
  4028e1:	4c 89 ee             	mov    %r13,%rsi
  4028e4:	89 ef                	mov    %ebp,%edi
  4028e6:	e8 d9 f9 ff ff       	callq  4022c4 <rio_writen>
  4028eb:	48 83 c4 10          	add    $0x10,%rsp
  4028ef:	48 85 c0             	test   %rax,%rax
  4028f2:	79 6e                	jns    402962 <submitr+0x425>
  4028f4:	48 b8 45 72 72 6f 72 	movabs $0x43203a726f727245,%rax
  4028fb:	3a 20 43 
  4028fe:	48 89 03             	mov    %rax,(%rbx)
  402901:	48 b8 6c 69 65 6e 74 	movabs $0x6e7520746e65696c,%rax
  402908:	20 75 6e 
  40290b:	48 89 43 08          	mov    %rax,0x8(%rbx)
  40290f:	48 b8 61 62 6c 65 20 	movabs $0x206f7420656c6261,%rax
  402916:	74 6f 20 
  402919:	48 89 43 10          	mov    %rax,0x10(%rbx)
  40291d:	48 b8 77 72 69 74 65 	movabs $0x6f74206574697277,%rax
  402924:	20 74 6f 
  402927:	48 89 43 18          	mov    %rax,0x18(%rbx)
  40292b:	48 b8 20 74 68 65 20 	movabs $0x7365722065687420,%rax
  402932:	72 65 73 
  402935:	48 89 43 20          	mov    %rax,0x20(%rbx)
  402939:	48 b8 75 6c 74 20 73 	movabs $0x7672657320746c75,%rax
  402940:	65 72 76 
  402943:	48 89 43 28          	mov    %rax,0x28(%rbx)
  402947:	66 c7 43 30 65 72    	movw   $0x7265,0x30(%rbx)
  40294d:	c6 43 32 00          	movb   $0x0,0x32(%rbx)
  402951:	89 ef                	mov    %ebp,%edi
  402953:	e8 e8 e3 ff ff       	callq  400d40 <close@plt>
  402958:	b8 ff ff ff ff       	mov    $0xffffffff,%eax
  40295d:	e9 12 03 00 00       	jmpq   402c74 <submitr+0x737>
  402962:	89 ee                	mov    %ebp,%esi
  402964:	48 8d bc 24 30 80 00 	lea    0x8030(%rsp),%rdi
  40296b:	00 
  40296c:	e8 13 f9 ff ff       	callq  402284 <rio_readinitb>
  402971:	ba 00 20 00 00       	mov    $0x2000,%edx
  402976:	48 8d 74 24 30       	lea    0x30(%rsp),%rsi
  40297b:	48 8d bc 24 30 80 00 	lea    0x8030(%rsp),%rdi
  402982:	00 
  402983:	e8 23 fa ff ff       	callq  4023ab <rio_readlineb>
  402988:	48 85 c0             	test   %rax,%rax
  40298b:	7f 7d                	jg     402a0a <submitr+0x4cd>
  40298d:	48 b8 45 72 72 6f 72 	movabs $0x43203a726f727245,%rax
  402994:	3a 20 43 
  402997:	48 89 03             	mov    %rax,(%rbx)
  40299a:	48 b8 6c 69 65 6e 74 	movabs $0x6e7520746e65696c,%rax
  4029a1:	20 75 6e 
  4029a4:	48 89 43 08          	mov    %rax,0x8(%rbx)
  4029a8:	48 b8 61 62 6c 65 20 	movabs $0x206f7420656c6261,%rax
  4029af:	74 6f 20 
  4029b2:	48 89 43 10          	mov    %rax,0x10(%rbx)
  4029b6:	48 b8 72 65 61 64 20 	movabs $0x7269662064616572,%rax
  4029bd:	66 69 72 
  4029c0:	48 89 43 18          	mov    %rax,0x18(%rbx)
  4029c4:	48 b8 73 74 20 68 65 	movabs $0x6564616568207473,%rax
  4029cb:	61 64 65 
  4029ce:	48 89 43 20          	mov    %rax,0x20(%rbx)
  4029d2:	48 b8 72 20 66 72 6f 	movabs $0x72206d6f72662072,%rax
  4029d9:	6d 20 72 
  4029dc:	48 89 43 28          	mov    %rax,0x28(%rbx)
  4029e0:	48 b8 65 73 75 6c 74 	movabs $0x657320746c757365,%rax
  4029e7:	20 73 65 
  4029ea:	48 89 43 30          	mov    %rax,0x30(%rbx)
  4029ee:	c7 43 38 72 76 65 72 	movl   $0x72657672,0x38(%rbx)
  4029f5:	c6 43 3c 00          	movb   $0x0,0x3c(%rbx)
  4029f9:	89 ef                	mov    %ebp,%edi
  4029fb:	e8 40 e3 ff ff       	callq  400d40 <close@plt>
  402a00:	b8 ff ff ff ff       	mov    $0xffffffff,%eax
  402a05:	e9 6a 02 00 00       	jmpq   402c74 <submitr+0x737>
  402a0a:	4c 8d 84 24 30 60 00 	lea    0x6030(%rsp),%r8
  402a11:	00 
  402a12:	48 8d 4c 24 1c       	lea    0x1c(%rsp),%rcx
  402a17:	48 8d 94 24 30 40 00 	lea    0x4030(%rsp),%rdx
  402a1e:	00 
  402a1f:	be cf 37 40 00       	mov    $0x4037cf,%esi
  402a24:	48 8d 7c 24 30       	lea    0x30(%rsp),%rdi
  402a29:	b8 00 00 00 00       	mov    $0x0,%eax
  402a2e:	e8 cd e3 ff ff       	callq  400e00 <__isoc99_sscanf@plt>
  402a33:	e9 95 00 00 00       	jmpq   402acd <submitr+0x590>
  402a38:	ba 00 20 00 00       	mov    $0x2000,%edx
  402a3d:	48 8d 74 24 30       	lea    0x30(%rsp),%rsi
  402a42:	48 8d bc 24 30 80 00 	lea    0x8030(%rsp),%rdi
  402a49:	00 
  402a4a:	e8 5c f9 ff ff       	callq  4023ab <rio_readlineb>
  402a4f:	48 85 c0             	test   %rax,%rax
  402a52:	7f 79                	jg     402acd <submitr+0x590>
  402a54:	48 b8 45 72 72 6f 72 	movabs $0x43203a726f727245,%rax
  402a5b:	3a 20 43 
  402a5e:	48 89 03             	mov    %rax,(%rbx)
  402a61:	48 b8 6c 69 65 6e 74 	movabs $0x6e7520746e65696c,%rax
  402a68:	20 75 6e 
  402a6b:	48 89 43 08          	mov    %rax,0x8(%rbx)
  402a6f:	48 b8 61 62 6c 65 20 	movabs $0x206f7420656c6261,%rax
  402a76:	74 6f 20 
  402a79:	48 89 43 10          	mov    %rax,0x10(%rbx)
  402a7d:	48 b8 72 65 61 64 20 	movabs $0x6165682064616572,%rax
  402a84:	68 65 61 
  402a87:	48 89 43 18          	mov    %rax,0x18(%rbx)
  402a8b:	48 b8 64 65 72 73 20 	movabs $0x6f72662073726564,%rax
  402a92:	66 72 6f 
  402a95:	48 89 43 20          	mov    %rax,0x20(%rbx)
  402a99:	48 b8 6d 20 74 68 65 	movabs $0x657220656874206d,%rax
  402aa0:	20 72 65 
  402aa3:	48 89 43 28          	mov    %rax,0x28(%rbx)
  402aa7:	48 b8 73 75 6c 74 20 	movabs $0x72657320746c7573,%rax
  402aae:	73 65 72 
  402ab1:	48 89 43 30          	mov    %rax,0x30(%rbx)
  402ab5:	c7 43 38 76 65 72 00 	movl   $0x726576,0x38(%rbx)
  402abc:	89 ef                	mov    %ebp,%edi
  402abe:	e8 7d e2 ff ff       	callq  400d40 <close@plt>
  402ac3:	b8 ff ff ff ff       	mov    $0xffffffff,%eax
  402ac8:	e9 a7 01 00 00       	jmpq   402c74 <submitr+0x737>
  402acd:	0f b6 54 24 30       	movzbl 0x30(%rsp),%edx
  402ad2:	b8 0d 00 00 00       	mov    $0xd,%eax
  402ad7:	29 d0                	sub    %edx,%eax
  402ad9:	75 15                	jne    402af0 <submitr+0x5b3>
  402adb:	0f b6 54 24 31       	movzbl 0x31(%rsp),%edx
  402ae0:	b8 0a 00 00 00       	mov    $0xa,%eax
  402ae5:	29 d0                	sub    %edx,%eax
  402ae7:	75 07                	jne    402af0 <submitr+0x5b3>
  402ae9:	0f b6 44 24 32       	movzbl 0x32(%rsp),%eax
  402aee:	f7 d8                	neg    %eax
  402af0:	85 c0                	test   %eax,%eax
  402af2:	0f 85 40 ff ff ff    	jne    402a38 <submitr+0x4fb>
  402af8:	ba 00 20 00 00       	mov    $0x2000,%edx
  402afd:	48 8d 74 24 30       	lea    0x30(%rsp),%rsi
  402b02:	48 8d bc 24 30 80 00 	lea    0x8030(%rsp),%rdi
  402b09:	00 
  402b0a:	e8 9c f8 ff ff       	callq  4023ab <rio_readlineb>
  402b0f:	48 85 c0             	test   %rax,%rax
  402b12:	0f 8f 83 00 00 00    	jg     402b9b <submitr+0x65e>
  402b18:	48 b8 45 72 72 6f 72 	movabs $0x43203a726f727245,%rax
  402b1f:	3a 20 43 
  402b22:	48 89 03             	mov    %rax,(%rbx)
  402b25:	48 b8 6c 69 65 6e 74 	movabs $0x6e7520746e65696c,%rax
  402b2c:	20 75 6e 
  402b2f:	48 89 43 08          	mov    %rax,0x8(%rbx)
  402b33:	48 b8 61 62 6c 65 20 	movabs $0x206f7420656c6261,%rax
  402b3a:	74 6f 20 
  402b3d:	48 89 43 10          	mov    %rax,0x10(%rbx)
  402b41:	48 b8 72 65 61 64 20 	movabs $0x6174732064616572,%rax
  402b48:	73 74 61 
  402b4b:	48 89 43 18          	mov    %rax,0x18(%rbx)
  402b4f:	48 b8 74 75 73 20 6d 	movabs $0x7373656d20737574,%rax
  402b56:	65 73 73 
  402b59:	48 89 43 20          	mov    %rax,0x20(%rbx)
  402b5d:	48 b8 61 67 65 20 66 	movabs $0x6d6f726620656761,%rax
  402b64:	72 6f 6d 
  402b67:	48 89 43 28          	mov    %rax,0x28(%rbx)
  402b6b:	48 b8 20 72 65 73 75 	movabs $0x20746c7573657220,%rax
  402b72:	6c 74 20 
  402b75:	48 89 43 30          	mov    %rax,0x30(%rbx)
  402b79:	c7 43 38 73 65 72 76 	movl   $0x76726573,0x38(%rbx)
  402b80:	66 c7 43 3c 65 72    	movw   $0x7265,0x3c(%rbx)
  402b86:	c6 43 3e 00          	movb   $0x0,0x3e(%rbx)
  402b8a:	89 ef                	mov    %ebp,%edi
  402b8c:	e8 af e1 ff ff       	callq  400d40 <close@plt>
  402b91:	b8 ff ff ff ff       	mov    $0xffffffff,%eax
  402b96:	e9 d9 00 00 00       	jmpq   402c74 <submitr+0x737>
  402b9b:	44 8b 44 24 1c       	mov    0x1c(%rsp),%r8d
  402ba0:	41 81 f8 c8 00 00 00 	cmp    $0xc8,%r8d
  402ba7:	74 37                	je     402be0 <submitr+0x6a3>
  402ba9:	4c 8d 8c 24 30 60 00 	lea    0x6030(%rsp),%r9
  402bb0:	00 
  402bb1:	b9 98 37 40 00       	mov    $0x403798,%ecx
  402bb6:	48 c7 c2 ff ff ff ff 	mov    $0xffffffffffffffff,%rdx
  402bbd:	be 01 00 00 00       	mov    $0x1,%esi
  402bc2:	48 89 df             	mov    %rbx,%rdi
  402bc5:	b8 00 00 00 00       	mov    $0x0,%eax
  402bca:	e8 d1 e2 ff ff       	callq  400ea0 <__sprintf_chk@plt>
  402bcf:	89 ef                	mov    %ebp,%edi
  402bd1:	e8 6a e1 ff ff       	callq  400d40 <close@plt>
  402bd6:	b8 ff ff ff ff       	mov    $0xffffffff,%eax
  402bdb:	e9 94 00 00 00       	jmpq   402c74 <submitr+0x737>
  402be0:	48 8d 74 24 30       	lea    0x30(%rsp),%rsi
  402be5:	48 89 df             	mov    %rbx,%rdi
  402be8:	e8 e3 e0 ff ff       	callq  400cd0 <strcpy@plt>
  402bed:	89 ef                	mov    %ebp,%edi
  402bef:	e8 4c e1 ff ff       	callq  400d40 <close@plt>
  402bf4:	0f b6 03             	movzbl (%rbx),%eax
  402bf7:	ba 4f 00 00 00       	mov    $0x4f,%edx
  402bfc:	29 c2                	sub    %eax,%edx
  402bfe:	75 22                	jne    402c22 <submitr+0x6e5>
  402c00:	0f b6 4b 01          	movzbl 0x1(%rbx),%ecx
  402c04:	b8 4b 00 00 00       	mov    $0x4b,%eax
  402c09:	29 c8                	sub    %ecx,%eax
  402c0b:	75 17                	jne    402c24 <submitr+0x6e7>
  402c0d:	0f b6 4b 02          	movzbl 0x2(%rbx),%ecx
  402c11:	b8 0a 00 00 00       	mov    $0xa,%eax
  402c16:	29 c8                	sub    %ecx,%eax
  402c18:	75 0a                	jne    402c24 <submitr+0x6e7>
  402c1a:	0f b6 43 03          	movzbl 0x3(%rbx),%eax
  402c1e:	f7 d8                	neg    %eax
  402c20:	eb 02                	jmp    402c24 <submitr+0x6e7>
  402c22:	89 d0                	mov    %edx,%eax
  402c24:	85 c0                	test   %eax,%eax
  402c26:	74 40                	je     402c68 <submitr+0x72b>
  402c28:	bf e0 37 40 00       	mov    $0x4037e0,%edi
  402c2d:	b9 05 00 00 00       	mov    $0x5,%ecx
  402c32:	48 89 de             	mov    %rbx,%rsi
  402c35:	f3 a6                	repz cmpsb %es:(%rdi),%ds:(%rsi)
  402c37:	0f 97 c0             	seta   %al
  402c3a:	0f 92 c1             	setb   %cl
  402c3d:	29 c8                	sub    %ecx,%eax
  402c3f:	0f be c0             	movsbl %al,%eax
  402c42:	85 c0                	test   %eax,%eax
  402c44:	74 2e                	je     402c74 <submitr+0x737>
  402c46:	85 d2                	test   %edx,%edx
  402c48:	75 13                	jne    402c5d <submitr+0x720>
  402c4a:	0f b6 43 01          	movzbl 0x1(%rbx),%eax
  402c4e:	ba 4b 00 00 00       	mov    $0x4b,%edx
  402c53:	29 c2                	sub    %eax,%edx
  402c55:	75 06                	jne    402c5d <submitr+0x720>
  402c57:	0f b6 53 02          	movzbl 0x2(%rbx),%edx
  402c5b:	f7 da                	neg    %edx
  402c5d:	85 d2                	test   %edx,%edx
  402c5f:	75 0e                	jne    402c6f <submitr+0x732>
  402c61:	b8 00 00 00 00       	mov    $0x0,%eax
  402c66:	eb 0c                	jmp    402c74 <submitr+0x737>
  402c68:	b8 00 00 00 00       	mov    $0x0,%eax
  402c6d:	eb 05                	jmp    402c74 <submitr+0x737>
  402c6f:	b8 ff ff ff ff       	mov    $0xffffffff,%eax
  402c74:	48 8b 9c 24 48 a0 00 	mov    0xa048(%rsp),%rbx
  402c7b:	00 
  402c7c:	64 48 33 1c 25 28 00 	xor    %fs:0x28,%rbx
  402c83:	00 00 
  402c85:	74 05                	je     402c8c <submitr+0x74f>
  402c87:	e8 74 e0 ff ff       	callq  400d00 <__stack_chk_fail@plt>
  402c8c:	48 81 c4 58 a0 00 00 	add    $0xa058,%rsp
  402c93:	5b                   	pop    %rbx
  402c94:	5d                   	pop    %rbp
  402c95:	41 5c                	pop    %r12
  402c97:	41 5d                	pop    %r13
  402c99:	41 5e                	pop    %r14
  402c9b:	41 5f                	pop    %r15
  402c9d:	c3                   	retq   

0000000000402c9e <init_timeout>:
  402c9e:	85 ff                	test   %edi,%edi
  402ca0:	74 23                	je     402cc5 <init_timeout+0x27>
  402ca2:	53                   	push   %rbx
  402ca3:	89 fb                	mov    %edi,%ebx
  402ca5:	85 ff                	test   %edi,%edi
  402ca7:	79 05                	jns    402cae <init_timeout+0x10>
  402ca9:	bb 00 00 00 00       	mov    $0x0,%ebx
  402cae:	be 96 22 40 00       	mov    $0x402296,%esi
  402cb3:	bf 0e 00 00 00       	mov    $0xe,%edi
  402cb8:	e8 b3 e0 ff ff       	callq  400d70 <signal@plt>
  402cbd:	89 df                	mov    %ebx,%edi
  402cbf:	e8 6c e0 ff ff       	callq  400d30 <alarm@plt>
  402cc4:	5b                   	pop    %rbx
  402cc5:	f3 c3                	repz retq 

0000000000402cc7 <init_driver>:
  402cc7:	55                   	push   %rbp
  402cc8:	53                   	push   %rbx
  402cc9:	48 83 ec 28          	sub    $0x28,%rsp
  402ccd:	48 89 fd             	mov    %rdi,%rbp
  402cd0:	64 48 8b 04 25 28 00 	mov    %fs:0x28,%rax
  402cd7:	00 00 
  402cd9:	48 89 44 24 18       	mov    %rax,0x18(%rsp)
  402cde:	31 c0                	xor    %eax,%eax
  402ce0:	be 01 00 00 00       	mov    $0x1,%esi
  402ce5:	bf 0d 00 00 00       	mov    $0xd,%edi
  402cea:	e8 81 e0 ff ff       	callq  400d70 <signal@plt>
  402cef:	be 01 00 00 00       	mov    $0x1,%esi
  402cf4:	bf 1d 00 00 00       	mov    $0x1d,%edi
  402cf9:	e8 72 e0 ff ff       	callq  400d70 <signal@plt>
  402cfe:	be 01 00 00 00       	mov    $0x1,%esi
  402d03:	bf 1d 00 00 00       	mov    $0x1d,%edi
  402d08:	e8 63 e0 ff ff       	callq  400d70 <signal@plt>
  402d0d:	ba 00 00 00 00       	mov    $0x0,%edx
  402d12:	be 01 00 00 00       	mov    $0x1,%esi
  402d17:	bf 02 00 00 00       	mov    $0x2,%edi
  402d1c:	e8 8f e1 ff ff       	callq  400eb0 <socket@plt>
  402d21:	85 c0                	test   %eax,%eax
  402d23:	79 4f                	jns    402d74 <init_driver+0xad>
  402d25:	48 b8 45 72 72 6f 72 	movabs $0x43203a726f727245,%rax
  402d2c:	3a 20 43 
  402d2f:	48 89 45 00          	mov    %rax,0x0(%rbp)
  402d33:	48 b8 6c 69 65 6e 74 	movabs $0x6e7520746e65696c,%rax
  402d3a:	20 75 6e 
  402d3d:	48 89 45 08          	mov    %rax,0x8(%rbp)
  402d41:	48 b8 61 62 6c 65 20 	movabs $0x206f7420656c6261,%rax
  402d48:	74 6f 20 
  402d4b:	48 89 45 10          	mov    %rax,0x10(%rbp)
  402d4f:	48 b8 63 72 65 61 74 	movabs $0x7320657461657263,%rax
  402d56:	65 20 73 
  402d59:	48 89 45 18          	mov    %rax,0x18(%rbp)
  402d5d:	c7 45 20 6f 63 6b 65 	movl   $0x656b636f,0x20(%rbp)
  402d64:	66 c7 45 24 74 00    	movw   $0x74,0x24(%rbp)
  402d6a:	b8 ff ff ff ff       	mov    $0xffffffff,%eax
  402d6f:	e9 2a 01 00 00       	jmpq   402e9e <init_driver+0x1d7>
  402d74:	89 c3                	mov    %eax,%ebx
  402d76:	bf 1f 33 40 00       	mov    $0x40331f,%edi
  402d7b:	e8 00 e0 ff ff       	callq  400d80 <gethostbyname@plt>
  402d80:	48 85 c0             	test   %rax,%rax
  402d83:	75 68                	jne    402ded <init_driver+0x126>
  402d85:	48 b8 45 72 72 6f 72 	movabs $0x44203a726f727245,%rax
  402d8c:	3a 20 44 
  402d8f:	48 89 45 00          	mov    %rax,0x0(%rbp)
  402d93:	48 b8 4e 53 20 69 73 	movabs $0x6e7520736920534e,%rax
  402d9a:	20 75 6e 
  402d9d:	48 89 45 08          	mov    %rax,0x8(%rbp)
  402da1:	48 b8 61 62 6c 65 20 	movabs $0x206f7420656c6261,%rax
  402da8:	74 6f 20 
  402dab:	48 89 45 10          	mov    %rax,0x10(%rbp)
  402daf:	48 b8 72 65 73 6f 6c 	movabs $0x2065766c6f736572,%rax
  402db6:	76 65 20 
  402db9:	48 89 45 18          	mov    %rax,0x18(%rbp)
  402dbd:	48 b8 73 65 72 76 65 	movabs $0x6120726576726573,%rax
  402dc4:	72 20 61 
  402dc7:	48 89 45 20          	mov    %rax,0x20(%rbp)
  402dcb:	c7 45 28 64 64 72 65 	movl   $0x65726464,0x28(%rbp)
  402dd2:	66 c7 45 2c 73 73    	movw   $0x7373,0x2c(%rbp)
  402dd8:	c6 45 2e 00          	movb   $0x0,0x2e(%rbp)
  402ddc:	89 df                	mov    %ebx,%edi
  402dde:	e8 5d df ff ff       	callq  400d40 <close@plt>
  402de3:	b8 ff ff ff ff       	mov    $0xffffffff,%eax
  402de8:	e9 b1 00 00 00       	jmpq   402e9e <init_driver+0x1d7>
  402ded:	48 c7 04 24 00 00 00 	movq   $0x0,(%rsp)
  402df4:	00 
  402df5:	48 c7 44 24 08 00 00 	movq   $0x0,0x8(%rsp)
  402dfc:	00 00 
  402dfe:	66 c7 04 24 02 00    	movw   $0x2,(%rsp)
  402e04:	48 63 50 14          	movslq 0x14(%rax),%rdx
  402e08:	48 8b 40 18          	mov    0x18(%rax),%rax
  402e0c:	48 8b 30             	mov    (%rax),%rsi
  402e0f:	48 8d 7c 24 04       	lea    0x4(%rsp),%rdi
  402e14:	b9 0c 00 00 00       	mov    $0xc,%ecx
  402e19:	e8 72 df ff ff       	callq  400d90 <__memmove_chk@plt>
  402e1e:	66 c7 44 24 02 4e f3 	movw   $0xf34e,0x2(%rsp)
  402e25:	ba 10 00 00 00       	mov    $0x10,%edx
  402e2a:	48 89 e6             	mov    %rsp,%rsi
  402e2d:	89 df                	mov    %ebx,%edi
  402e2f:	e8 4c e0 ff ff       	callq  400e80 <connect@plt>
  402e34:	85 c0                	test   %eax,%eax
  402e36:	79 50                	jns    402e88 <init_driver+0x1c1>
  402e38:	48 b8 45 72 72 6f 72 	movabs $0x55203a726f727245,%rax
  402e3f:	3a 20 55 
  402e42:	48 89 45 00          	mov    %rax,0x0(%rbp)
  402e46:	48 b8 6e 61 62 6c 65 	movabs $0x6f7420656c62616e,%rax
  402e4d:	20 74 6f 
  402e50:	48 89 45 08          	mov    %rax,0x8(%rbp)
  402e54:	48 b8 20 63 6f 6e 6e 	movabs $0x7463656e6e6f6320,%rax
  402e5b:	65 63 74 
  402e5e:	48 89 45 10          	mov    %rax,0x10(%rbp)
  402e62:	48 b8 20 74 6f 20 73 	movabs $0x76726573206f7420,%rax
  402e69:	65 72 76 
  402e6c:	48 89 45 18          	mov    %rax,0x18(%rbp)
  402e70:	66 c7 45 20 65 72    	movw   $0x7265,0x20(%rbp)
  402e76:	c6 45 22 00          	movb   $0x0,0x22(%rbp)
  402e7a:	89 df                	mov    %ebx,%edi
  402e7c:	e8 bf de ff ff       	callq  400d40 <close@plt>
  402e81:	b8 ff ff ff ff       	mov    $0xffffffff,%eax
  402e86:	eb 16                	jmp    402e9e <init_driver+0x1d7>
  402e88:	89 df                	mov    %ebx,%edi
  402e8a:	e8 b1 de ff ff       	callq  400d40 <close@plt>
  402e8f:	66 c7 45 00 4f 4b    	movw   $0x4b4f,0x0(%rbp)
  402e95:	c6 45 02 00          	movb   $0x0,0x2(%rbp)
  402e99:	b8 00 00 00 00       	mov    $0x0,%eax
  402e9e:	48 8b 4c 24 18       	mov    0x18(%rsp),%rcx
  402ea3:	64 48 33 0c 25 28 00 	xor    %fs:0x28,%rcx
  402eaa:	00 00 
  402eac:	74 05                	je     402eb3 <init_driver+0x1ec>
  402eae:	e8 4d de ff ff       	callq  400d00 <__stack_chk_fail@plt>
  402eb3:	48 83 c4 28          	add    $0x28,%rsp
  402eb7:	5b                   	pop    %rbx
  402eb8:	5d                   	pop    %rbp
  402eb9:	c3                   	retq   

0000000000402eba <driver_post>:
  402eba:	53                   	push   %rbx
  402ebb:	4c 89 cb             	mov    %r9,%rbx
  402ebe:	45 85 c0             	test   %r8d,%r8d
  402ec1:	74 27                	je     402eea <driver_post+0x30>
  402ec3:	48 89 ca             	mov    %rcx,%rdx
  402ec6:	be e5 37 40 00       	mov    $0x4037e5,%esi
  402ecb:	bf 01 00 00 00       	mov    $0x1,%edi
  402ed0:	b8 00 00 00 00       	mov    $0x0,%eax
  402ed5:	e8 46 df ff ff       	callq  400e20 <__printf_chk@plt>
  402eda:	66 c7 03 4f 4b       	movw   $0x4b4f,(%rbx)
  402edf:	c6 43 02 00          	movb   $0x0,0x2(%rbx)
  402ee3:	b8 00 00 00 00       	mov    $0x0,%eax
  402ee8:	eb 3f                	jmp    402f29 <driver_post+0x6f>
  402eea:	48 85 ff             	test   %rdi,%rdi
  402eed:	74 2c                	je     402f1b <driver_post+0x61>
  402eef:	80 3f 00             	cmpb   $0x0,(%rdi)
  402ef2:	74 27                	je     402f1b <driver_post+0x61>
  402ef4:	48 83 ec 08          	sub    $0x8,%rsp
  402ef8:	41 51                	push   %r9
  402efa:	49 89 c9             	mov    %rcx,%r9
  402efd:	49 89 d0             	mov    %rdx,%r8
  402f00:	48 89 f9             	mov    %rdi,%rcx
  402f03:	48 89 f2             	mov    %rsi,%rdx
  402f06:	be f3 4e 00 00       	mov    $0x4ef3,%esi
  402f0b:	bf 1f 33 40 00       	mov    $0x40331f,%edi
  402f10:	e8 28 f6 ff ff       	callq  40253d <submitr>
  402f15:	48 83 c4 10          	add    $0x10,%rsp
  402f19:	eb 0e                	jmp    402f29 <driver_post+0x6f>
  402f1b:	66 c7 03 4f 4b       	movw   $0x4b4f,(%rbx)
  402f20:	c6 43 02 00          	movb   $0x0,0x2(%rbx)
  402f24:	b8 00 00 00 00       	mov    $0x0,%eax
  402f29:	5b                   	pop    %rbx
  402f2a:	c3                   	retq   

0000000000402f2b <check>:
  402f2b:	89 f8                	mov    %edi,%eax
  402f2d:	c1 e8 1c             	shr    $0x1c,%eax
  402f30:	85 c0                	test   %eax,%eax
  402f32:	74 1d                	je     402f51 <check+0x26>
  402f34:	b9 00 00 00 00       	mov    $0x0,%ecx
  402f39:	eb 0b                	jmp    402f46 <check+0x1b>
  402f3b:	89 f8                	mov    %edi,%eax
  402f3d:	d3 e8                	shr    %cl,%eax
  402f3f:	3c 0a                	cmp    $0xa,%al
  402f41:	74 14                	je     402f57 <check+0x2c>
  402f43:	83 c1 08             	add    $0x8,%ecx
  402f46:	83 f9 1f             	cmp    $0x1f,%ecx
  402f49:	7e f0                	jle    402f3b <check+0x10>
  402f4b:	b8 01 00 00 00       	mov    $0x1,%eax
  402f50:	c3                   	retq   
  402f51:	b8 00 00 00 00       	mov    $0x0,%eax
  402f56:	c3                   	retq   
  402f57:	b8 00 00 00 00       	mov    $0x0,%eax
  402f5c:	c3                   	retq   

0000000000402f5d <gencookie>:
  402f5d:	53                   	push   %rbx
  402f5e:	83 c7 01             	add    $0x1,%edi
  402f61:	e8 4a dd ff ff       	callq  400cb0 <srandom@plt>
  402f66:	e8 75 de ff ff       	callq  400de0 <random@plt>
  402f6b:	89 c3                	mov    %eax,%ebx
  402f6d:	89 c7                	mov    %eax,%edi
  402f6f:	e8 b7 ff ff ff       	callq  402f2b <check>
  402f74:	85 c0                	test   %eax,%eax
  402f76:	74 ee                	je     402f66 <gencookie+0x9>
  402f78:	89 d8                	mov    %ebx,%eax
  402f7a:	5b                   	pop    %rbx
  402f7b:	c3                   	retq   
  402f7c:	0f 1f 40 00          	nopl   0x0(%rax)

0000000000402f80 <__libc_csu_init>:
  402f80:	41 57                	push   %r15
  402f82:	41 89 ff             	mov    %edi,%r15d
  402f85:	41 56                	push   %r14
  402f87:	49 89 f6             	mov    %rsi,%r14
  402f8a:	41 55                	push   %r13
  402f8c:	49 89 d5             	mov    %rdx,%r13
  402f8f:	41 54                	push   %r12
  402f91:	4c 8d 25 78 1e 20 00 	lea    0x201e78(%rip),%r12        # 604e10 <__frame_dummy_init_array_entry>
  402f98:	55                   	push   %rbp
  402f99:	48 8d 2d 78 1e 20 00 	lea    0x201e78(%rip),%rbp        # 604e18 <__init_array_end>
  402fa0:	53                   	push   %rbx
  402fa1:	4c 29 e5             	sub    %r12,%rbp
  402fa4:	31 db                	xor    %ebx,%ebx
  402fa6:	48 c1 fd 03          	sar    $0x3,%rbp
  402faa:	48 83 ec 08          	sub    $0x8,%rsp
  402fae:	e8 ad dc ff ff       	callq  400c60 <_init>
  402fb3:	48 85 ed             	test   %rbp,%rbp
  402fb6:	74 1e                	je     402fd6 <__libc_csu_init+0x56>
  402fb8:	0f 1f 84 00 00 00 00 	nopl   0x0(%rax,%rax,1)
  402fbf:	00 
  402fc0:	4c 89 ea             	mov    %r13,%rdx
  402fc3:	4c 89 f6             	mov    %r14,%rsi
  402fc6:	44 89 ff             	mov    %r15d,%edi
  402fc9:	41 ff 14 dc          	callq  *(%r12,%rbx,8)
  402fcd:	48 83 c3 01          	add    $0x1,%rbx
  402fd1:	48 39 eb             	cmp    %rbp,%rbx
  402fd4:	75 ea                	jne    402fc0 <__libc_csu_init+0x40>
  402fd6:	48 83 c4 08          	add    $0x8,%rsp
  402fda:	5b                   	pop    %rbx
  402fdb:	5d                   	pop    %rbp
  402fdc:	41 5c                	pop    %r12
  402fde:	41 5d                	pop    %r13
  402fe0:	41 5e                	pop    %r14
  402fe2:	41 5f                	pop    %r15
  402fe4:	c3                   	retq   
  402fe5:	66 66 2e 0f 1f 84 00 	data16 nopw %cs:0x0(%rax,%rax,1)
  402fec:	00 00 00 00 

0000000000402ff0 <__libc_csu_fini>:
  402ff0:	f3 c3                	repz retq 

Disassembly of section .fini:

0000000000402ff4 <_fini>:
  402ff4:	48 83 ec 08          	sub    $0x8,%rsp
  402ff8:	48 83 c4 08          	add    $0x8,%rsp
  402ffc:	c3                   	retq   
